ARM GAS  C:\Users\ryanc\AppData\Local\Temp\ccKEprBM.s 			page 1


   1              		.syntax unified
   2              		.cpu cortex-m3
   3              		.fpu softvfp
   4              		.eabi_attribute 20, 1
   5              		.eabi_attribute 21, 1
   6              		.eabi_attribute 23, 3
   7              		.eabi_attribute 24, 1
   8              		.eabi_attribute 25, 1
   9              		.eabi_attribute 26, 1
  10              		.eabi_attribute 30, 1
  11              		.eabi_attribute 34, 1
  12              		.eabi_attribute 18, 4
  13              		.thumb
  14              		.syntax unified
  15              		.file	"main.c"
  16              		.text
  17              	.Ltext0:
  18              		.cfi_sections	.debug_frame
  19              		.global	__aeabi_i2d
  20              		.global	__aeabi_dmul
  21              		.global	__aeabi_dadd
  22              		.global	__aeabi_d2iz
  23              		.section	.text.degtopwm,"ax",%progbits
  24              		.align	2
  25              		.global	degtopwm
  26              		.thumb
  27              		.thumb_func
  28              		.type	degtopwm, %function
  29              	degtopwm:
  30              	.LFB64:
  31              		.file 1 "main.c"
   1:main.c        **** 
   2:main.c        **** #include <project.h>
   3:main.c        **** #include <stdlib.h> 
   4:main.c        **** #include <stdio.h>
   5:main.c        **** #include <math.h>
   6:main.c        **** 
   7:main.c        **** #define USBUART_BUFFER_SIZE 64
   8:main.c        **** 
   9:main.c        **** char msg[USBUART_BUFFER_SIZE];    
  10:main.c        ****    
  11:main.c        **** //variables UART
  12:main.c        **** char8* parity[] = {"None", "Odd", "Even", "Mark", "Space"};
  13:main.c        **** char8* stopm[]   = {"1", "1.5", "2"};
  14:main.c        **** uint16 count;
  15:main.c        **** uint8 buffer[USBUART_BUFFER_SIZE];
  16:main.c        **** void UARTconfig ();
  17:main.c        **** //Servo Signal param//20ms - 64000 COUNTS
  18:main.c        **** //Potentiometer Angle 265  Servo Range (200Deg Right Angle),(265 Straight) 
  19:main.c        **** //PWM COMPARE VALUES
  20:main.c        **** #define PWMMIN 3250 //1ms
  21:main.c        **** #define PWMMID 4800 //1.5ms
  22:main.c        **** #define PWMMAX 6350 //2ms
  23:main.c        **** 
  24:main.c        **** //--- anglelimit for joint type
  25:main.c        **** //angle limits
  26:main.c        **** #define Servo_MIN -100
ARM GAS  C:\Users\ryanc\AppData\Local\Temp\ccKEprBM.s 			page 2


  27:main.c        **** #define Servo_MAX 100
  28:main.c        **** #define ang_lim(x) (x<Servo_MIN ? Servo_MIN : (x>Servo_MAX ? Servo_MAX : x))
  29:main.c        **** 
  30:main.c        **** ///----LEGS
  31:main.c        **** #define servo1(x) PWMA_WriteCompare1(x); //Front Left
  32:main.c        **** #define servo2(x) PWMA_WriteCompare2(x); //Front Right
  33:main.c        **** //#define servo3(x) PWMB_WriteCompare1(x); //Back Left
  34:main.c        **** //#define servo4(x) PWMB_WriteCompare2(x); //Back Right
  35:main.c        **** 
  36:main.c        **** int anglegs[] ={0,0,0,0},a=1,pwmlegs[] ={0,0,0,0};
  37:main.c        **** ///----SHOULDER
  38:main.c        **** 
  39:main.c        **** 
  40:main.c        **** ///----ARMS
  41:main.c        **** 
  42:main.c        **** 
  43:main.c        **** void degtopwm() {
  32              		.loc 1 43 0
  33              		.cfi_startproc
  34              		@ args = 0, pretend = 0, frame = 0
  35              		@ frame_needed = 0, uses_anonymous_args = 0
  36 0000 10B5     		push	{r4, lr}
  37              		.cfi_def_cfa_offset 8
  38              		.cfi_offset 4, -8
  39              		.cfi_offset 14, -4
  40              	.LVL0:
  44:main.c        ****    int i;
  45:main.c        ****     //for(i=0;i<4;i++){
  46:main.c        ****     i=0;
  47:main.c        ****         anglegs[i]=ang_lim(anglegs[i]);
  41              		.loc 1 47 0
  42 0002 154B     		ldr	r3, .L5+16
  43 0004 1868     		ldr	r0, [r3]
  44 0006 10F1640F 		cmn	r0, #100
  45 000a 03DB     		blt	.L3
  46              		.loc 1 47 0 is_stmt 0 discriminator 1
  47 000c 6428     		cmp	r0, #100
  48 000e A8BF     		it	ge
  49 0010 6420     		movge	r0, #100
  50 0012 01E0     		b	.L2
  51              	.L3:
  52              		.loc 1 47 0
  53 0014 6FF06300 		mvn	r0, #99
  54              	.L2:
  55              		.loc 1 47 0 discriminator 4
  56 0018 0F4C     		ldr	r4, .L5+16
  57 001a 2060     		str	r0, [r4]
  48:main.c        ****         pwmlegs[i]=(anglegs[i]*0.01)*1550+PWMMID;
  58              		.loc 1 48 0 is_stmt 1 discriminator 4
  59 001c FFF7FEFF 		bl	__aeabi_i2d
  60              	.LVL1:
  61 0020 09A3     		adr	r3, .L5
  62 0022 D3E90023 		ldrd	r2, [r3]
  63 0026 FFF7FEFF 		bl	__aeabi_dmul
  64              	.LVL2:
  65 002a 09A3     		adr	r3, .L5+8
  66 002c D3E90023 		ldrd	r2, [r3]
ARM GAS  C:\Users\ryanc\AppData\Local\Temp\ccKEprBM.s 			page 3


  67 0030 FFF7FEFF 		bl	__aeabi_dmul
  68              	.LVL3:
  69 0034 0022     		movs	r2, #0
  70 0036 094B     		ldr	r3, .L5+20
  71 0038 FFF7FEFF 		bl	__aeabi_dadd
  72              	.LVL4:
  73 003c FFF7FEFF 		bl	__aeabi_d2iz
  74              	.LVL5:
  75 0040 2061     		str	r0, [r4, #16]
  76 0042 10BD     		pop	{r4, pc}
  77              	.L6:
  78 0044 AFF30080 		.align	3
  79              	.L5:
  80 0048 7B14AE47 		.word	1202590843
  81 004c E17A843F 		.word	1065646817
  82 0050 00000000 		.word	0
  83 0054 00389840 		.word	1083717632
  84 0058 00000000 		.word	.LANCHOR0
  85 005c 00C0B240 		.word	1085456384
  86              		.cfi_endproc
  87              	.LFE64:
  88              		.size	degtopwm, .-degtopwm
  89              		.section	.text.servooutput,"ax",%progbits
  90              		.align	2
  91              		.global	servooutput
  92              		.thumb
  93              		.thumb_func
  94              		.type	servooutput, %function
  95              	servooutput:
  96              	.LFB65:
  49:main.c        ****     //}
  50:main.c        ****     
  51:main.c        **** }
  52:main.c        **** void servooutput(){
  97              		.loc 1 52 0
  98              		.cfi_startproc
  99              		@ args = 0, pretend = 0, frame = 0
 100              		@ frame_needed = 0, uses_anonymous_args = 0
 101 0000 10B5     		push	{r4, lr}
 102              		.cfi_def_cfa_offset 8
 103              		.cfi_offset 4, -8
 104              		.cfi_offset 14, -4
  53:main.c        ****     degtopwm();
 105              		.loc 1 53 0
 106 0002 FFF7FEFF 		bl	degtopwm
 107              	.LVL6:
  54:main.c        ****     servo1(pwmlegs[0]);
 108              		.loc 1 54 0
 109 0006 044C     		ldr	r4, .L9
 110 0008 208A     		ldrh	r0, [r4, #16]
 111 000a FFF7FEFF 		bl	PWMA_WriteCompare1
 112              	.LVL7:
  55:main.c        ****     servo2(pwmlegs[1]);
 113              		.loc 1 55 0
 114 000e A08A     		ldrh	r0, [r4, #20]
 115 0010 FFF7FEFF 		bl	PWMA_WriteCompare2
 116              	.LVL8:
ARM GAS  C:\Users\ryanc\AppData\Local\Temp\ccKEprBM.s 			page 4


 117 0014 10BD     		pop	{r4, pc}
 118              	.L10:
 119 0016 00BF     		.align	2
 120              	.L9:
 121 0018 00000000 		.word	.LANCHOR0
 122              		.cfi_endproc
 123              	.LFE65:
 124              		.size	servooutput, .-servooutput
 125              		.section	.text.UARTconfig,"ax",%progbits
 126              		.align	2
 127              		.global	UARTconfig
 128              		.thumb
 129              		.thumb_func
 130              		.type	UARTconfig, %function
 131              	UARTconfig:
 132              	.LFB67:
  56:main.c        ****     //servo3(anglegs[1]);
  57:main.c        ****    // servo4(anglegs[1]);
  58:main.c        **** }
  59:main.c        **** int main(){  
  60:main.c        ****     CyGlobalIntEnable;/* Enable global interrupts */
  61:main.c        ****     UARTconfig();
  62:main.c        ****     USBUART_PutString("Spider");  
  63:main.c        ****     PWMA_Start();  
  64:main.c        ****     for(;;)
  65:main.c        ****     {
  66:main.c        ****         if(anglegs[0]>95) a=-1; 
  67:main.c        ****         else if(anglegs[0]<-95)a=1;
  68:main.c        ****         anglegs[0]=anglegs[0]+a*5;  
  69:main.c        ****         sprintf(msg,"%i\r\n",pwmlegs[0]);
  70:main.c        ****         USBUART_PutString(msg); 
  71:main.c        ****         servooutput();
  72:main.c        ****         CyDelay(50);
  73:main.c        ****     }
  74:main.c        **** }
  75:main.c        **** 
  76:main.c        **** void UARTconfig (){
 133              		.loc 1 76 0
 134              		.cfi_startproc
 135              		@ args = 0, pretend = 0, frame = 0
 136              		@ frame_needed = 0, uses_anonymous_args = 0
 137 0000 08B5     		push	{r3, lr}
 138              		.cfi_def_cfa_offset 8
 139              		.cfi_offset 3, -8
 140              		.cfi_offset 14, -4
  77:main.c        ****     if (0u != USBUART_IsConfigurationChanged()) {//Initialize IN endpoints when device is configure
 141              		.loc 1 77 0
 142 0002 FFF7FEFF 		bl	USBUART_IsConfigurationChanged
 143              	.LVL9:
 144 0006 20B1     		cbz	r0, .L12
  78:main.c        ****         if (0u != USBUART_GetConfiguration()) {// Enumeration is done, enable OUT endpoint to recei
 145              		.loc 1 78 0
 146 0008 FFF7FEFF 		bl	USBUART_GetConfiguration
 147              	.LVL10:
 148 000c 08B1     		cbz	r0, .L12
  79:main.c        ****             USBUART_CDC_Init();
 149              		.loc 1 79 0
ARM GAS  C:\Users\ryanc\AppData\Local\Temp\ccKEprBM.s 			page 5


 150 000e FFF7FEFF 		bl	USBUART_CDC_Init
 151              	.LVL11:
 152              	.L12:
  80:main.c        ****         }
  81:main.c        ****     }
  82:main.c        **** 
  83:main.c        ****        //Service USB CDC when device is configured. 
  84:main.c        ****         if (0u != USBUART_GetConfiguration()){ // Check for input data from host. 
 153              		.loc 1 84 0
 154 0012 FFF7FEFF 		bl	USBUART_GetConfiguration
 155              	.LVL12:
 156 0016 E8B1     		cbz	r0, .L11
  85:main.c        ****            
  86:main.c        ****             if (0u != USBUART_DataIsReady()){// Read received data and re-enable OUT endpoint. 
 157              		.loc 1 86 0
 158 0018 FFF7FEFF 		bl	USBUART_DataIsReady
 159              	.LVL13:
 160 001c D0B1     		cbz	r0, .L11
  87:main.c        ****                 count = USBUART_GetAll(buffer);
 161              		.loc 1 87 0
 162 001e 0E48     		ldr	r0, .L17
 163 0020 FFF7FEFF 		bl	USBUART_GetAll
 164              	.LVL14:
 165 0024 0D4B     		ldr	r3, .L17+4
 166 0026 1880     		strh	r0, [r3]	@ movhi
  88:main.c        ****                 if (0u != count){//Wait until component is ready to send data to host.
 167              		.loc 1 88 0
 168 0028 A0B1     		cbz	r0, .L11
 169              	.L14:
  89:main.c        ****                     while (0u == USBUART_CDCIsReady()){}
 170              		.loc 1 89 0 discriminator 1
 171 002a FFF7FEFF 		bl	USBUART_CDCIsReady
 172              	.LVL15:
 173 002e 0028     		cmp	r0, #0
 174 0030 FBD0     		beq	.L14
  90:main.c        ****                     //Send data back to host.
  91:main.c        ****                     USBUART_PutString("and");                   
 175              		.loc 1 91 0
 176 0032 0B48     		ldr	r0, .L17+8
 177 0034 FFF7FEFF 		bl	USBUART_PutString
 178              	.LVL16:
  92:main.c        ****                     if (USBUART_BUFFER_SIZE == count){// Wait until component is ready to send data
 179              		.loc 1 92 0
 180 0038 084B     		ldr	r3, .L17+4
 181 003a 1B88     		ldrh	r3, [r3]
 182 003c 402B     		cmp	r3, #64
 183 003e 09D1     		bne	.L11
 184              	.L15:
  93:main.c        ****                         while (0u == USBUART_CDCIsReady()){}                        
 185              		.loc 1 93 0 discriminator 1
 186 0040 FFF7FEFF 		bl	USBUART_CDCIsReady
 187              	.LVL17:
 188 0044 0028     		cmp	r0, #0
 189 0046 FBD0     		beq	.L15
  94:main.c        ****                         USBUART_PutChar('\r');  
 190              		.loc 1 94 0
 191 0048 0D20     		movs	r0, #13
ARM GAS  C:\Users\ryanc\AppData\Local\Temp\ccKEprBM.s 			page 6


 192 004a FFF7FEFF 		bl	USBUART_PutChar
 193              	.LVL18:
  95:main.c        ****                         USBUART_PutChar('\n');  
 194              		.loc 1 95 0
 195 004e 0A20     		movs	r0, #10
 196 0050 FFF7FEFF 		bl	USBUART_PutChar
 197              	.LVL19:
 198              	.L11:
 199 0054 08BD     		pop	{r3, pc}
 200              	.L18:
 201 0056 00BF     		.align	2
 202              	.L17:
 203 0058 00000000 		.word	buffer
 204 005c 00000000 		.word	count
 205 0060 00000000 		.word	.LC0
 206              		.cfi_endproc
 207              	.LFE67:
 208              		.size	UARTconfig, .-UARTconfig
 209              		.section	.text.main,"ax",%progbits
 210              		.align	2
 211              		.global	main
 212              		.thumb
 213              		.thumb_func
 214              		.type	main, %function
 215              	main:
 216              	.LFB66:
  59:main.c        ****     CyGlobalIntEnable;/* Enable global interrupts */
 217              		.loc 1 59 0
 218              		.cfi_startproc
 219              		@ Volatile: function does not return.
 220              		@ args = 0, pretend = 0, frame = 0
 221              		@ frame_needed = 0, uses_anonymous_args = 0
 222 0000 08B5     		push	{r3, lr}
 223              		.cfi_def_cfa_offset 8
 224              		.cfi_offset 3, -8
 225              		.cfi_offset 14, -4
  60:main.c        ****     UARTconfig();
 226              		.loc 1 60 0
 227              		.syntax unified
 228              	@ 60 "main.c" 1
 229 0002 62B6     		CPSIE   i
 230              	@ 0 "" 2
  61:main.c        ****     USBUART_PutString("Spider");  
 231              		.loc 1 61 0
 232              		.thumb
 233              		.syntax unified
 234 0004 FFF7FEFF 		bl	UARTconfig
 235              	.LVL20:
  62:main.c        ****     PWMA_Start();  
 236              		.loc 1 62 0
 237 0008 1448     		ldr	r0, .L24
 238 000a FFF7FEFF 		bl	USBUART_PutString
 239              	.LVL21:
  63:main.c        ****     for(;;)
 240              		.loc 1 63 0
 241 000e FFF7FEFF 		bl	PWMA_Start
 242              	.LVL22:
ARM GAS  C:\Users\ryanc\AppData\Local\Temp\ccKEprBM.s 			page 7


 243              	.L22:
  66:main.c        ****         else if(anglegs[0]<-95)a=1;
 244              		.loc 1 66 0
 245 0012 134B     		ldr	r3, .L24+4
 246 0014 1A68     		ldr	r2, [r3]
 247 0016 5F2A     		cmp	r2, #95
 248 0018 04DD     		ble	.L20
  66:main.c        ****         else if(anglegs[0]<-95)a=1;
 249              		.loc 1 66 0 is_stmt 0 discriminator 1
 250 001a 4FF0FF31 		mov	r1, #-1
 251 001e 114B     		ldr	r3, .L24+8
 252 0020 1960     		str	r1, [r3]
 253 0022 05E0     		b	.L21
 254              	.L20:
  67:main.c        ****         anglegs[0]=anglegs[0]+a*5;  
 255              		.loc 1 67 0 is_stmt 1
 256 0024 12F15F0F 		cmn	r2, #95
 257 0028 02DA     		bge	.L21
  67:main.c        ****         anglegs[0]=anglegs[0]+a*5;  
 258              		.loc 1 67 0 is_stmt 0 discriminator 1
 259 002a 0121     		movs	r1, #1
 260 002c 0D4B     		ldr	r3, .L24+8
 261 002e 1960     		str	r1, [r3]
 262              	.L21:
  68:main.c        ****         sprintf(msg,"%i\r\n",pwmlegs[0]);
 263              		.loc 1 68 0 is_stmt 1
 264 0030 0C4B     		ldr	r3, .L24+8
 265 0032 1B68     		ldr	r3, [r3]
 266 0034 03EB8303 		add	r3, r3, r3, lsl #2
 267 0038 1344     		add	r3, r3, r2
 268 003a 094A     		ldr	r2, .L24+4
 269 003c 1360     		str	r3, [r2]
  69:main.c        ****         USBUART_PutString(msg); 
 270              		.loc 1 69 0
 271 003e 0A4C     		ldr	r4, .L24+12
 272 0040 1269     		ldr	r2, [r2, #16]
 273 0042 0A49     		ldr	r1, .L24+16
 274 0044 2046     		mov	r0, r4
 275 0046 FFF7FEFF 		bl	sprintf
 276              	.LVL23:
  70:main.c        ****         servooutput();
 277              		.loc 1 70 0
 278 004a 2046     		mov	r0, r4
 279 004c FFF7FEFF 		bl	USBUART_PutString
 280              	.LVL24:
  71:main.c        ****         CyDelay(50);
 281              		.loc 1 71 0
 282 0050 FFF7FEFF 		bl	servooutput
 283              	.LVL25:
  72:main.c        ****     }
 284              		.loc 1 72 0
 285 0054 3220     		movs	r0, #50
 286 0056 FFF7FEFF 		bl	CyDelay
 287              	.LVL26:
  73:main.c        **** }
 288              		.loc 1 73 0
 289 005a DAE7     		b	.L22
ARM GAS  C:\Users\ryanc\AppData\Local\Temp\ccKEprBM.s 			page 8


 290              	.L25:
 291              		.align	2
 292              	.L24:
 293 005c 04000000 		.word	.LC1
 294 0060 00000000 		.word	.LANCHOR0
 295 0064 00000000 		.word	.LANCHOR1
 296 0068 00000000 		.word	msg
 297 006c 0C000000 		.word	.LC2
 298              		.cfi_endproc
 299              	.LFE66:
 300              		.size	main, .-main
 301              		.global	pwmlegs
 302              		.global	a
 303              		.global	anglegs
 304              		.comm	buffer,64,4
 305              		.comm	count,2,2
 306              		.global	stopm
 307              		.global	parity
 308              		.comm	msg,64,4
 309              		.data
 310              		.align	2
 311              		.set	.LANCHOR1,. + 0
 312              		.type	a, %object
 313              		.size	a, 4
 314              	a:
 315 0000 01000000 		.word	1
 316              		.type	stopm, %object
 317              		.size	stopm, 12
 318              	stopm:
 319 0004 14000000 		.word	.LC3
 320 0008 18000000 		.word	.LC4
 321 000c 1C000000 		.word	.LC5
 322              		.type	parity, %object
 323              		.size	parity, 20
 324              	parity:
 325 0010 20000000 		.word	.LC6
 326 0014 28000000 		.word	.LC7
 327 0018 2C000000 		.word	.LC8
 328 001c 34000000 		.word	.LC9
 329 0020 3C000000 		.word	.LC10
 330              		.section	.rodata.str1.4,"aMS",%progbits,1
 331              		.align	2
 332              	.LC0:
 333 0000 616E6400 		.ascii	"and\000"
 334              	.LC1:
 335 0004 53706964 		.ascii	"Spider\000"
 335      657200
 336 000b 00       		.space	1
 337              	.LC2:
 338 000c 25690D0A 		.ascii	"%i\015\012\000"
 338      00
 339 0011 000000   		.space	3
 340              	.LC3:
 341 0014 3100     		.ascii	"1\000"
 342 0016 0000     		.space	2
 343              	.LC4:
 344 0018 312E3500 		.ascii	"1.5\000"
ARM GAS  C:\Users\ryanc\AppData\Local\Temp\ccKEprBM.s 			page 9


 345              	.LC5:
 346 001c 3200     		.ascii	"2\000"
 347 001e 0000     		.space	2
 348              	.LC6:
 349 0020 4E6F6E65 		.ascii	"None\000"
 349      00
 350 0025 000000   		.space	3
 351              	.LC7:
 352 0028 4F646400 		.ascii	"Odd\000"
 353              	.LC8:
 354 002c 4576656E 		.ascii	"Even\000"
 354      00
 355 0031 000000   		.space	3
 356              	.LC9:
 357 0034 4D61726B 		.ascii	"Mark\000"
 357      00
 358 0039 000000   		.space	3
 359              	.LC10:
 360 003c 53706163 		.ascii	"Space\000"
 360      6500
 361              		.bss
 362              		.align	2
 363              		.set	.LANCHOR0,. + 0
 364              		.type	anglegs, %object
 365              		.size	anglegs, 16
 366              	anglegs:
 367 0000 00000000 		.space	16
 367      00000000 
 367      00000000 
 367      00000000 
 368              		.type	pwmlegs, %object
 369              		.size	pwmlegs, 16
 370              	pwmlegs:
 371 0010 00000000 		.space	16
 371      00000000 
 371      00000000 
 371      00000000 
 372              		.text
 373              	.Letext0:
 374              		.file 2 "c:\\program files (x86)\\cypress\\psoc creator\\4.2\\psoc creator\\import\\gnu\\arm\\5.4.
 375              		.file 3 "c:\\program files (x86)\\cypress\\psoc creator\\4.2\\psoc creator\\import\\gnu\\arm\\5.4.
 376              		.file 4 "Generated_Source\\PSoC5/cytypes.h"
 377              		.file 5 "Generated_Source\\PSoC5/core_cm3.h"
 378              		.file 6 "Generated_Source\\PSoC5/PWMA.h"
 379              		.file 7 "Generated_Source\\PSoC5/USBUART.h"
 380              		.file 8 "Generated_Source\\PSoC5/USBUART_cdc.h"
 381              		.file 9 "c:\\program files (x86)\\cypress\\psoc creator\\4.2\\psoc creator\\import\\gnu\\arm\\5.4.
 382              		.file 10 "Generated_Source\\PSoC5/CyLib.h"