ARM GAS  C:\Users\ryanc\AppData\Local\Temp\ccbbl6Eq.s 			page 1


   1              		.syntax unified
   2              		.cpu cortex-m3
   3              		.fpu softvfp
   4              		.eabi_attribute 20, 1
   5              		.eabi_attribute 21, 1
   6              		.eabi_attribute 23, 3
   7              		.eabi_attribute 24, 1
   8              		.eabi_attribute 25, 1
   9              		.eabi_attribute 26, 1
  10              		.eabi_attribute 30, 1
  11              		.eabi_attribute 34, 1
  12              		.eabi_attribute 18, 4
  13              		.thumb
  14              		.syntax unified
  15              		.file	"PWMA.c"
  16              		.text
  17              	.Ltext0:
  18              		.cfi_sections	.debug_frame
  19              		.section	.text.PWMA_Enable,"ax",%progbits
  20              		.align	2
  21              		.global	PWMA_Enable
  22              		.thumb
  23              		.thumb_func
  24              		.type	PWMA_Enable, %function
  25              	PWMA_Enable:
  26              	.LFB2:
  27              		.file 1 "Generated_Source\\PSoC5\\PWMA.c"
   1:Generated_Source\PSoC5/PWMA.c **** /*******************************************************************************
   2:Generated_Source\PSoC5/PWMA.c **** * File Name: PWMA.c
   3:Generated_Source\PSoC5/PWMA.c **** * Version 3.30
   4:Generated_Source\PSoC5/PWMA.c **** *
   5:Generated_Source\PSoC5/PWMA.c **** * Description:
   6:Generated_Source\PSoC5/PWMA.c **** *  The PWM User Module consist of an 8 or 16-bit counter with two 8 or 16-bit
   7:Generated_Source\PSoC5/PWMA.c **** *  comparitors. Each instance of this user module is capable of generating
   8:Generated_Source\PSoC5/PWMA.c **** *  two PWM outputs with the same period. The pulse width is selectable between
   9:Generated_Source\PSoC5/PWMA.c **** *  1 and 255/65535. The period is selectable between 2 and 255/65536 clocks.
  10:Generated_Source\PSoC5/PWMA.c **** *  The compare value output may be configured to be active when the present
  11:Generated_Source\PSoC5/PWMA.c **** *  counter is less than or less than/equal to the compare value.
  12:Generated_Source\PSoC5/PWMA.c **** *  A terminal count output is also provided. It generates a pulse one clock
  13:Generated_Source\PSoC5/PWMA.c **** *  width wide when the counter is equal to zero.
  14:Generated_Source\PSoC5/PWMA.c **** *
  15:Generated_Source\PSoC5/PWMA.c **** * Note:
  16:Generated_Source\PSoC5/PWMA.c **** *
  17:Generated_Source\PSoC5/PWMA.c **** *******************************************************************************
  18:Generated_Source\PSoC5/PWMA.c **** * Copyright 2008-2014, Cypress Semiconductor Corporation.  All rights reserved.
  19:Generated_Source\PSoC5/PWMA.c **** * You may use this file only in accordance with the license, terms, conditions,
  20:Generated_Source\PSoC5/PWMA.c **** * disclaimers, and limitations in the end user license agreement accompanying
  21:Generated_Source\PSoC5/PWMA.c **** * the software package with which this file was provided.
  22:Generated_Source\PSoC5/PWMA.c **** ********************************************************************************/
  23:Generated_Source\PSoC5/PWMA.c **** 
  24:Generated_Source\PSoC5/PWMA.c **** #include "PWMA.h"
  25:Generated_Source\PSoC5/PWMA.c **** 
  26:Generated_Source\PSoC5/PWMA.c **** /* Error message for removed <resource> through optimization */
  27:Generated_Source\PSoC5/PWMA.c **** #ifdef PWMA_PWMUDB_genblk1_ctrlreg__REMOVED
  28:Generated_Source\PSoC5/PWMA.c ****     #error PWM_v3_30 detected with a constant 0 for the enable or \
  29:Generated_Source\PSoC5/PWMA.c ****          constant 1 for reset. This will prevent the component from operating.
  30:Generated_Source\PSoC5/PWMA.c **** #endif /* PWMA_PWMUDB_genblk1_ctrlreg__REMOVED */
ARM GAS  C:\Users\ryanc\AppData\Local\Temp\ccbbl6Eq.s 			page 2


  31:Generated_Source\PSoC5/PWMA.c **** 
  32:Generated_Source\PSoC5/PWMA.c **** uint8 PWMA_initVar = 0u;
  33:Generated_Source\PSoC5/PWMA.c **** 
  34:Generated_Source\PSoC5/PWMA.c **** 
  35:Generated_Source\PSoC5/PWMA.c **** /*******************************************************************************
  36:Generated_Source\PSoC5/PWMA.c **** * Function Name: PWMA_Start
  37:Generated_Source\PSoC5/PWMA.c **** ********************************************************************************
  38:Generated_Source\PSoC5/PWMA.c **** *
  39:Generated_Source\PSoC5/PWMA.c **** * Summary:
  40:Generated_Source\PSoC5/PWMA.c **** *  The start function initializes the pwm with the default values, the
  41:Generated_Source\PSoC5/PWMA.c **** *  enables the counter to begin counting.  It does not enable interrupts,
  42:Generated_Source\PSoC5/PWMA.c **** *  the EnableInt command should be called if interrupt generation is required.
  43:Generated_Source\PSoC5/PWMA.c **** *
  44:Generated_Source\PSoC5/PWMA.c **** * Parameters:
  45:Generated_Source\PSoC5/PWMA.c **** *  None
  46:Generated_Source\PSoC5/PWMA.c **** *
  47:Generated_Source\PSoC5/PWMA.c **** * Return:
  48:Generated_Source\PSoC5/PWMA.c **** *  None
  49:Generated_Source\PSoC5/PWMA.c **** *
  50:Generated_Source\PSoC5/PWMA.c **** * Global variables:
  51:Generated_Source\PSoC5/PWMA.c **** *  PWMA_initVar: Is modified when this function is called for the
  52:Generated_Source\PSoC5/PWMA.c **** *   first time. Is used to ensure that initialization happens only once.
  53:Generated_Source\PSoC5/PWMA.c **** *
  54:Generated_Source\PSoC5/PWMA.c **** *******************************************************************************/
  55:Generated_Source\PSoC5/PWMA.c **** void PWMA_Start(void) 
  56:Generated_Source\PSoC5/PWMA.c **** {
  57:Generated_Source\PSoC5/PWMA.c ****     /* If not Initialized then initialize all required hardware and software */
  58:Generated_Source\PSoC5/PWMA.c ****     if(PWMA_initVar == 0u)
  59:Generated_Source\PSoC5/PWMA.c ****     {
  60:Generated_Source\PSoC5/PWMA.c ****         PWMA_Init();
  61:Generated_Source\PSoC5/PWMA.c ****         PWMA_initVar = 1u;
  62:Generated_Source\PSoC5/PWMA.c ****     }
  63:Generated_Source\PSoC5/PWMA.c ****     PWMA_Enable();
  64:Generated_Source\PSoC5/PWMA.c **** 
  65:Generated_Source\PSoC5/PWMA.c **** }
  66:Generated_Source\PSoC5/PWMA.c **** 
  67:Generated_Source\PSoC5/PWMA.c **** 
  68:Generated_Source\PSoC5/PWMA.c **** /*******************************************************************************
  69:Generated_Source\PSoC5/PWMA.c **** * Function Name: PWMA_Init
  70:Generated_Source\PSoC5/PWMA.c **** ********************************************************************************
  71:Generated_Source\PSoC5/PWMA.c **** *
  72:Generated_Source\PSoC5/PWMA.c **** * Summary:
  73:Generated_Source\PSoC5/PWMA.c **** *  Initialize component's parameters to the parameters set by user in the
  74:Generated_Source\PSoC5/PWMA.c **** *  customizer of the component placed onto schematic. Usually called in
  75:Generated_Source\PSoC5/PWMA.c **** *  PWMA_Start().
  76:Generated_Source\PSoC5/PWMA.c **** *
  77:Generated_Source\PSoC5/PWMA.c **** * Parameters:
  78:Generated_Source\PSoC5/PWMA.c **** *  None
  79:Generated_Source\PSoC5/PWMA.c **** *
  80:Generated_Source\PSoC5/PWMA.c **** * Return:
  81:Generated_Source\PSoC5/PWMA.c **** *  None
  82:Generated_Source\PSoC5/PWMA.c **** *
  83:Generated_Source\PSoC5/PWMA.c **** *******************************************************************************/
  84:Generated_Source\PSoC5/PWMA.c **** void PWMA_Init(void) 
  85:Generated_Source\PSoC5/PWMA.c **** {
  86:Generated_Source\PSoC5/PWMA.c ****     #if (PWMA_UsingFixedFunction || PWMA_UseControl)
  87:Generated_Source\PSoC5/PWMA.c ****         uint8 ctrl;
ARM GAS  C:\Users\ryanc\AppData\Local\Temp\ccbbl6Eq.s 			page 3


  88:Generated_Source\PSoC5/PWMA.c ****     #endif /* (PWMA_UsingFixedFunction || PWMA_UseControl) */
  89:Generated_Source\PSoC5/PWMA.c **** 
  90:Generated_Source\PSoC5/PWMA.c ****     #if(!PWMA_UsingFixedFunction)
  91:Generated_Source\PSoC5/PWMA.c ****         #if(PWMA_UseStatus)
  92:Generated_Source\PSoC5/PWMA.c ****             /* Interrupt State Backup for Critical Region*/
  93:Generated_Source\PSoC5/PWMA.c ****             uint8 PWMA_interruptState;
  94:Generated_Source\PSoC5/PWMA.c ****         #endif /* (PWMA_UseStatus) */
  95:Generated_Source\PSoC5/PWMA.c ****     #endif /* (!PWMA_UsingFixedFunction) */
  96:Generated_Source\PSoC5/PWMA.c **** 
  97:Generated_Source\PSoC5/PWMA.c ****     #if (PWMA_UsingFixedFunction)
  98:Generated_Source\PSoC5/PWMA.c ****         /* You are allowed to write the compare value (FF only) */
  99:Generated_Source\PSoC5/PWMA.c ****         PWMA_CONTROL |= PWMA_CFG0_MODE;
 100:Generated_Source\PSoC5/PWMA.c ****         #if (PWMA_DeadBand2_4)
 101:Generated_Source\PSoC5/PWMA.c ****             PWMA_CONTROL |= PWMA_CFG0_DB;
 102:Generated_Source\PSoC5/PWMA.c ****         #endif /* (PWMA_DeadBand2_4) */
 103:Generated_Source\PSoC5/PWMA.c **** 
 104:Generated_Source\PSoC5/PWMA.c ****         ctrl = PWMA_CONTROL3 & ((uint8 )(~PWMA_CTRL_CMPMODE1_MASK));
 105:Generated_Source\PSoC5/PWMA.c ****         PWMA_CONTROL3 = ctrl | PWMA_DEFAULT_COMPARE1_MODE;
 106:Generated_Source\PSoC5/PWMA.c **** 
 107:Generated_Source\PSoC5/PWMA.c ****          /* Clear and Set SYNCTC and SYNCCMP bits of RT1 register */
 108:Generated_Source\PSoC5/PWMA.c ****         PWMA_RT1 &= ((uint8)(~PWMA_RT1_MASK));
 109:Generated_Source\PSoC5/PWMA.c ****         PWMA_RT1 |= PWMA_SYNC;
 110:Generated_Source\PSoC5/PWMA.c **** 
 111:Generated_Source\PSoC5/PWMA.c ****         /*Enable DSI Sync all all inputs of the PWM*/
 112:Generated_Source\PSoC5/PWMA.c ****         PWMA_RT1 &= ((uint8)(~PWMA_SYNCDSI_MASK));
 113:Generated_Source\PSoC5/PWMA.c ****         PWMA_RT1 |= PWMA_SYNCDSI_EN;
 114:Generated_Source\PSoC5/PWMA.c **** 
 115:Generated_Source\PSoC5/PWMA.c ****     #elif (PWMA_UseControl)
 116:Generated_Source\PSoC5/PWMA.c ****         /* Set the default compare mode defined in the parameter */
 117:Generated_Source\PSoC5/PWMA.c ****         ctrl = PWMA_CONTROL & ((uint8)(~PWMA_CTRL_CMPMODE2_MASK)) &
 118:Generated_Source\PSoC5/PWMA.c ****                 ((uint8)(~PWMA_CTRL_CMPMODE1_MASK));
 119:Generated_Source\PSoC5/PWMA.c ****         PWMA_CONTROL = ctrl | PWMA_DEFAULT_COMPARE2_MODE |
 120:Generated_Source\PSoC5/PWMA.c ****                                    PWMA_DEFAULT_COMPARE1_MODE;
 121:Generated_Source\PSoC5/PWMA.c ****     #endif /* (PWMA_UsingFixedFunction) */
 122:Generated_Source\PSoC5/PWMA.c **** 
 123:Generated_Source\PSoC5/PWMA.c ****     #if (!PWMA_UsingFixedFunction)
 124:Generated_Source\PSoC5/PWMA.c ****         #if (PWMA_Resolution == 8)
 125:Generated_Source\PSoC5/PWMA.c ****             /* Set FIFO 0 to 1 byte register for period*/
 126:Generated_Source\PSoC5/PWMA.c ****             PWMA_AUX_CONTROLDP0 |= (PWMA_AUX_CTRL_FIFO0_CLR);
 127:Generated_Source\PSoC5/PWMA.c ****         #else /* (PWMA_Resolution == 16)*/
 128:Generated_Source\PSoC5/PWMA.c ****             /* Set FIFO 0 to 1 byte register for period */
 129:Generated_Source\PSoC5/PWMA.c ****             PWMA_AUX_CONTROLDP0 |= (PWMA_AUX_CTRL_FIFO0_CLR);
 130:Generated_Source\PSoC5/PWMA.c ****             PWMA_AUX_CONTROLDP1 |= (PWMA_AUX_CTRL_FIFO0_CLR);
 131:Generated_Source\PSoC5/PWMA.c ****         #endif /* (PWMA_Resolution == 8) */
 132:Generated_Source\PSoC5/PWMA.c **** 
 133:Generated_Source\PSoC5/PWMA.c ****         PWMA_WriteCounter(PWMA_INIT_PERIOD_VALUE);
 134:Generated_Source\PSoC5/PWMA.c ****     #endif /* (!PWMA_UsingFixedFunction) */
 135:Generated_Source\PSoC5/PWMA.c **** 
 136:Generated_Source\PSoC5/PWMA.c ****     PWMA_WritePeriod(PWMA_INIT_PERIOD_VALUE);
 137:Generated_Source\PSoC5/PWMA.c **** 
 138:Generated_Source\PSoC5/PWMA.c ****         #if (PWMA_UseOneCompareMode)
 139:Generated_Source\PSoC5/PWMA.c ****             PWMA_WriteCompare(PWMA_INIT_COMPARE_VALUE1);
 140:Generated_Source\PSoC5/PWMA.c ****         #else
 141:Generated_Source\PSoC5/PWMA.c ****             PWMA_WriteCompare1(PWMA_INIT_COMPARE_VALUE1);
 142:Generated_Source\PSoC5/PWMA.c ****             PWMA_WriteCompare2(PWMA_INIT_COMPARE_VALUE2);
 143:Generated_Source\PSoC5/PWMA.c ****         #endif /* (PWMA_UseOneCompareMode) */
 144:Generated_Source\PSoC5/PWMA.c **** 
ARM GAS  C:\Users\ryanc\AppData\Local\Temp\ccbbl6Eq.s 			page 4


 145:Generated_Source\PSoC5/PWMA.c ****         #if (PWMA_KillModeMinTime)
 146:Generated_Source\PSoC5/PWMA.c ****             PWMA_WriteKillTime(PWMA_MinimumKillTime);
 147:Generated_Source\PSoC5/PWMA.c ****         #endif /* (PWMA_KillModeMinTime) */
 148:Generated_Source\PSoC5/PWMA.c **** 
 149:Generated_Source\PSoC5/PWMA.c ****         #if (PWMA_DeadBandUsed)
 150:Generated_Source\PSoC5/PWMA.c ****             PWMA_WriteDeadTime(PWMA_INIT_DEAD_TIME);
 151:Generated_Source\PSoC5/PWMA.c ****         #endif /* (PWMA_DeadBandUsed) */
 152:Generated_Source\PSoC5/PWMA.c **** 
 153:Generated_Source\PSoC5/PWMA.c ****     #if (PWMA_UseStatus || PWMA_UsingFixedFunction)
 154:Generated_Source\PSoC5/PWMA.c ****         PWMA_SetInterruptMode(PWMA_INIT_INTERRUPTS_MODE);
 155:Generated_Source\PSoC5/PWMA.c ****     #endif /* (PWMA_UseStatus || PWMA_UsingFixedFunction) */
 156:Generated_Source\PSoC5/PWMA.c **** 
 157:Generated_Source\PSoC5/PWMA.c ****     #if (PWMA_UsingFixedFunction)
 158:Generated_Source\PSoC5/PWMA.c ****         /* Globally Enable the Fixed Function Block chosen */
 159:Generated_Source\PSoC5/PWMA.c ****         PWMA_GLOBAL_ENABLE |= PWMA_BLOCK_EN_MASK;
 160:Generated_Source\PSoC5/PWMA.c ****         /* Set the Interrupt source to come from the status register */
 161:Generated_Source\PSoC5/PWMA.c ****         PWMA_CONTROL2 |= PWMA_CTRL2_IRQ_SEL;
 162:Generated_Source\PSoC5/PWMA.c ****     #else
 163:Generated_Source\PSoC5/PWMA.c ****         #if(PWMA_UseStatus)
 164:Generated_Source\PSoC5/PWMA.c **** 
 165:Generated_Source\PSoC5/PWMA.c ****             /* CyEnterCriticalRegion and CyExitCriticalRegion are used to mark following region cri
 166:Generated_Source\PSoC5/PWMA.c ****             /* Enter Critical Region*/
 167:Generated_Source\PSoC5/PWMA.c ****             PWMA_interruptState = CyEnterCriticalSection();
 168:Generated_Source\PSoC5/PWMA.c ****             /* Use the interrupt output of the status register for IRQ output */
 169:Generated_Source\PSoC5/PWMA.c ****             PWMA_STATUS_AUX_CTRL |= PWMA_STATUS_ACTL_INT_EN_MASK;
 170:Generated_Source\PSoC5/PWMA.c **** 
 171:Generated_Source\PSoC5/PWMA.c ****              /* Exit Critical Region*/
 172:Generated_Source\PSoC5/PWMA.c ****             CyExitCriticalSection(PWMA_interruptState);
 173:Generated_Source\PSoC5/PWMA.c **** 
 174:Generated_Source\PSoC5/PWMA.c ****             /* Clear the FIFO to enable the PWMA_STATUS_FIFOFULL
 175:Generated_Source\PSoC5/PWMA.c ****                    bit to be set on FIFO full. */
 176:Generated_Source\PSoC5/PWMA.c ****             PWMA_ClearFIFO();
 177:Generated_Source\PSoC5/PWMA.c ****         #endif /* (PWMA_UseStatus) */
 178:Generated_Source\PSoC5/PWMA.c ****     #endif /* (PWMA_UsingFixedFunction) */
 179:Generated_Source\PSoC5/PWMA.c **** }
 180:Generated_Source\PSoC5/PWMA.c **** 
 181:Generated_Source\PSoC5/PWMA.c **** 
 182:Generated_Source\PSoC5/PWMA.c **** /*******************************************************************************
 183:Generated_Source\PSoC5/PWMA.c **** * Function Name: PWMA_Enable
 184:Generated_Source\PSoC5/PWMA.c **** ********************************************************************************
 185:Generated_Source\PSoC5/PWMA.c **** *
 186:Generated_Source\PSoC5/PWMA.c **** * Summary:
 187:Generated_Source\PSoC5/PWMA.c **** *  Enables the PWM block operation
 188:Generated_Source\PSoC5/PWMA.c **** *
 189:Generated_Source\PSoC5/PWMA.c **** * Parameters:
 190:Generated_Source\PSoC5/PWMA.c **** *  None
 191:Generated_Source\PSoC5/PWMA.c **** *
 192:Generated_Source\PSoC5/PWMA.c **** * Return:
 193:Generated_Source\PSoC5/PWMA.c **** *  None
 194:Generated_Source\PSoC5/PWMA.c **** *
 195:Generated_Source\PSoC5/PWMA.c **** * Side Effects:
 196:Generated_Source\PSoC5/PWMA.c **** *  This works only if software enable mode is chosen
 197:Generated_Source\PSoC5/PWMA.c **** *
 198:Generated_Source\PSoC5/PWMA.c **** *******************************************************************************/
 199:Generated_Source\PSoC5/PWMA.c **** void PWMA_Enable(void) 
 200:Generated_Source\PSoC5/PWMA.c **** {
  28              		.loc 1 200 0
ARM GAS  C:\Users\ryanc\AppData\Local\Temp\ccbbl6Eq.s 			page 5


  29              		.cfi_startproc
  30              		@ args = 0, pretend = 0, frame = 0
  31              		@ frame_needed = 0, uses_anonymous_args = 0
  32              		@ link register save eliminated.
 201:Generated_Source\PSoC5/PWMA.c ****     /* Globally Enable the Fixed Function Block chosen */
 202:Generated_Source\PSoC5/PWMA.c ****     #if (PWMA_UsingFixedFunction)
 203:Generated_Source\PSoC5/PWMA.c ****         PWMA_GLOBAL_ENABLE |= PWMA_BLOCK_EN_MASK;
 204:Generated_Source\PSoC5/PWMA.c ****         PWMA_GLOBAL_STBY_ENABLE |= PWMA_BLOCK_STBY_EN_MASK;
 205:Generated_Source\PSoC5/PWMA.c ****     #endif /* (PWMA_UsingFixedFunction) */
 206:Generated_Source\PSoC5/PWMA.c **** 
 207:Generated_Source\PSoC5/PWMA.c ****     /* Enable the PWM from the control register  */
 208:Generated_Source\PSoC5/PWMA.c ****     #if (PWMA_UseControl || PWMA_UsingFixedFunction)
 209:Generated_Source\PSoC5/PWMA.c ****         PWMA_CONTROL |= PWMA_CTRL_ENABLE;
  33              		.loc 1 209 0
  34 0000 024A     		ldr	r2, .L2
  35 0002 1378     		ldrb	r3, [r2]	@ zero_extendqisi2
  36 0004 43F08003 		orr	r3, r3, #128
  37 0008 1370     		strb	r3, [r2]
  38 000a 7047     		bx	lr
  39              	.L3:
  40              		.align	2
  41              	.L2:
  42 000c 74640040 		.word	1073767540
  43              		.cfi_endproc
  44              	.LFE2:
  45              		.size	PWMA_Enable, .-PWMA_Enable
  46              		.section	.text.PWMA_Stop,"ax",%progbits
  47              		.align	2
  48              		.global	PWMA_Stop
  49              		.thumb
  50              		.thumb_func
  51              		.type	PWMA_Stop, %function
  52              	PWMA_Stop:
  53              	.LFB3:
 210:Generated_Source\PSoC5/PWMA.c ****     #endif /* (PWMA_UseControl || PWMA_UsingFixedFunction) */
 211:Generated_Source\PSoC5/PWMA.c **** }
 212:Generated_Source\PSoC5/PWMA.c **** 
 213:Generated_Source\PSoC5/PWMA.c **** 
 214:Generated_Source\PSoC5/PWMA.c **** /*******************************************************************************
 215:Generated_Source\PSoC5/PWMA.c **** * Function Name: PWMA_Stop
 216:Generated_Source\PSoC5/PWMA.c **** ********************************************************************************
 217:Generated_Source\PSoC5/PWMA.c **** *
 218:Generated_Source\PSoC5/PWMA.c **** * Summary:
 219:Generated_Source\PSoC5/PWMA.c **** *  The stop function halts the PWM, but does not change any modes or disable
 220:Generated_Source\PSoC5/PWMA.c **** *  interrupts.
 221:Generated_Source\PSoC5/PWMA.c **** *
 222:Generated_Source\PSoC5/PWMA.c **** * Parameters:
 223:Generated_Source\PSoC5/PWMA.c **** *  None
 224:Generated_Source\PSoC5/PWMA.c **** *
 225:Generated_Source\PSoC5/PWMA.c **** * Return:
 226:Generated_Source\PSoC5/PWMA.c **** *  None
 227:Generated_Source\PSoC5/PWMA.c **** *
 228:Generated_Source\PSoC5/PWMA.c **** * Side Effects:
 229:Generated_Source\PSoC5/PWMA.c **** *  If the Enable mode is set to Hardware only then this function
 230:Generated_Source\PSoC5/PWMA.c **** *  has no effect on the operation of the PWM
 231:Generated_Source\PSoC5/PWMA.c **** *
 232:Generated_Source\PSoC5/PWMA.c **** *******************************************************************************/
ARM GAS  C:\Users\ryanc\AppData\Local\Temp\ccbbl6Eq.s 			page 6


 233:Generated_Source\PSoC5/PWMA.c **** void PWMA_Stop(void) 
 234:Generated_Source\PSoC5/PWMA.c **** {
  54              		.loc 1 234 0
  55              		.cfi_startproc
  56              		@ args = 0, pretend = 0, frame = 0
  57              		@ frame_needed = 0, uses_anonymous_args = 0
  58              		@ link register save eliminated.
 235:Generated_Source\PSoC5/PWMA.c ****     #if (PWMA_UseControl || PWMA_UsingFixedFunction)
 236:Generated_Source\PSoC5/PWMA.c ****         PWMA_CONTROL &= ((uint8)(~PWMA_CTRL_ENABLE));
  59              		.loc 1 236 0
  60 0000 024A     		ldr	r2, .L5
  61 0002 1378     		ldrb	r3, [r2]	@ zero_extendqisi2
  62 0004 03F07F03 		and	r3, r3, #127
  63 0008 1370     		strb	r3, [r2]
  64 000a 7047     		bx	lr
  65              	.L6:
  66              		.align	2
  67              	.L5:
  68 000c 74640040 		.word	1073767540
  69              		.cfi_endproc
  70              	.LFE3:
  71              		.size	PWMA_Stop, .-PWMA_Stop
  72              		.section	.text.PWMA_WriteCounter,"ax",%progbits
  73              		.align	2
  74              		.global	PWMA_WriteCounter
  75              		.thumb
  76              		.thumb_func
  77              		.type	PWMA_WriteCounter, %function
  78              	PWMA_WriteCounter:
  79              	.LFB4:
 237:Generated_Source\PSoC5/PWMA.c ****     #endif /* (PWMA_UseControl || PWMA_UsingFixedFunction) */
 238:Generated_Source\PSoC5/PWMA.c **** 
 239:Generated_Source\PSoC5/PWMA.c ****     /* Globally disable the Fixed Function Block chosen */
 240:Generated_Source\PSoC5/PWMA.c ****     #if (PWMA_UsingFixedFunction)
 241:Generated_Source\PSoC5/PWMA.c ****         PWMA_GLOBAL_ENABLE &= ((uint8)(~PWMA_BLOCK_EN_MASK));
 242:Generated_Source\PSoC5/PWMA.c ****         PWMA_GLOBAL_STBY_ENABLE &= ((uint8)(~PWMA_BLOCK_STBY_EN_MASK));
 243:Generated_Source\PSoC5/PWMA.c ****     #endif /* (PWMA_UsingFixedFunction) */
 244:Generated_Source\PSoC5/PWMA.c **** }
 245:Generated_Source\PSoC5/PWMA.c **** 
 246:Generated_Source\PSoC5/PWMA.c **** #if (PWMA_UseOneCompareMode)
 247:Generated_Source\PSoC5/PWMA.c ****     #if (PWMA_CompareMode1SW)
 248:Generated_Source\PSoC5/PWMA.c **** 
 249:Generated_Source\PSoC5/PWMA.c **** 
 250:Generated_Source\PSoC5/PWMA.c ****         /*******************************************************************************
 251:Generated_Source\PSoC5/PWMA.c ****         * Function Name: PWMA_SetCompareMode
 252:Generated_Source\PSoC5/PWMA.c ****         ********************************************************************************
 253:Generated_Source\PSoC5/PWMA.c ****         *
 254:Generated_Source\PSoC5/PWMA.c ****         * Summary:
 255:Generated_Source\PSoC5/PWMA.c ****         *  This function writes the Compare Mode for the pwm output when in Dither mode,
 256:Generated_Source\PSoC5/PWMA.c ****         *  Center Align Mode or One Output Mode.
 257:Generated_Source\PSoC5/PWMA.c ****         *
 258:Generated_Source\PSoC5/PWMA.c ****         * Parameters:
 259:Generated_Source\PSoC5/PWMA.c ****         *  comparemode:  The new compare mode for the PWM output. Use the compare types
 260:Generated_Source\PSoC5/PWMA.c ****         *                defined in the H file as input arguments.
 261:Generated_Source\PSoC5/PWMA.c ****         *
 262:Generated_Source\PSoC5/PWMA.c ****         * Return:
 263:Generated_Source\PSoC5/PWMA.c ****         *  None
ARM GAS  C:\Users\ryanc\AppData\Local\Temp\ccbbl6Eq.s 			page 7


 264:Generated_Source\PSoC5/PWMA.c ****         *
 265:Generated_Source\PSoC5/PWMA.c ****         *******************************************************************************/
 266:Generated_Source\PSoC5/PWMA.c ****         void PWMA_SetCompareMode(uint8 comparemode) 
 267:Generated_Source\PSoC5/PWMA.c ****         {
 268:Generated_Source\PSoC5/PWMA.c ****             #if(PWMA_UsingFixedFunction)
 269:Generated_Source\PSoC5/PWMA.c **** 
 270:Generated_Source\PSoC5/PWMA.c ****                 #if(0 != PWMA_CTRL_CMPMODE1_SHIFT)
 271:Generated_Source\PSoC5/PWMA.c ****                     uint8 comparemodemasked = ((uint8)((uint8)comparemode << PWMA_CTRL_CMPMODE1_SHI
 272:Generated_Source\PSoC5/PWMA.c ****                 #else
 273:Generated_Source\PSoC5/PWMA.c ****                     uint8 comparemodemasked = comparemode;
 274:Generated_Source\PSoC5/PWMA.c ****                 #endif /* (0 != PWMA_CTRL_CMPMODE1_SHIFT) */
 275:Generated_Source\PSoC5/PWMA.c **** 
 276:Generated_Source\PSoC5/PWMA.c ****                 PWMA_CONTROL3 &= ((uint8)(~PWMA_CTRL_CMPMODE1_MASK)); /*Clear Existing Data */
 277:Generated_Source\PSoC5/PWMA.c ****                 PWMA_CONTROL3 |= comparemodemasked;
 278:Generated_Source\PSoC5/PWMA.c **** 
 279:Generated_Source\PSoC5/PWMA.c ****             #elif (PWMA_UseControl)
 280:Generated_Source\PSoC5/PWMA.c **** 
 281:Generated_Source\PSoC5/PWMA.c ****                 #if(0 != PWMA_CTRL_CMPMODE1_SHIFT)
 282:Generated_Source\PSoC5/PWMA.c ****                     uint8 comparemode1masked = ((uint8)((uint8)comparemode << PWMA_CTRL_CMPMODE1_SH
 283:Generated_Source\PSoC5/PWMA.c ****                                                 PWMA_CTRL_CMPMODE1_MASK;
 284:Generated_Source\PSoC5/PWMA.c ****                 #else
 285:Generated_Source\PSoC5/PWMA.c ****                     uint8 comparemode1masked = comparemode & PWMA_CTRL_CMPMODE1_MASK;
 286:Generated_Source\PSoC5/PWMA.c ****                 #endif /* (0 != PWMA_CTRL_CMPMODE1_SHIFT) */
 287:Generated_Source\PSoC5/PWMA.c **** 
 288:Generated_Source\PSoC5/PWMA.c ****                 #if(0 != PWMA_CTRL_CMPMODE2_SHIFT)
 289:Generated_Source\PSoC5/PWMA.c ****                     uint8 comparemode2masked = ((uint8)((uint8)comparemode << PWMA_CTRL_CMPMODE2_SH
 290:Generated_Source\PSoC5/PWMA.c ****                                                PWMA_CTRL_CMPMODE2_MASK;
 291:Generated_Source\PSoC5/PWMA.c ****                 #else
 292:Generated_Source\PSoC5/PWMA.c ****                     uint8 comparemode2masked = comparemode & PWMA_CTRL_CMPMODE2_MASK;
 293:Generated_Source\PSoC5/PWMA.c ****                 #endif /* (0 != PWMA_CTRL_CMPMODE2_SHIFT) */
 294:Generated_Source\PSoC5/PWMA.c **** 
 295:Generated_Source\PSoC5/PWMA.c ****                 /*Clear existing mode */
 296:Generated_Source\PSoC5/PWMA.c ****                 PWMA_CONTROL &= ((uint8)(~(PWMA_CTRL_CMPMODE1_MASK |
 297:Generated_Source\PSoC5/PWMA.c ****                                             PWMA_CTRL_CMPMODE2_MASK)));
 298:Generated_Source\PSoC5/PWMA.c ****                 PWMA_CONTROL |= (comparemode1masked | comparemode2masked);
 299:Generated_Source\PSoC5/PWMA.c **** 
 300:Generated_Source\PSoC5/PWMA.c ****             #else
 301:Generated_Source\PSoC5/PWMA.c ****                 uint8 temp = comparemode;
 302:Generated_Source\PSoC5/PWMA.c ****             #endif /* (PWMA_UsingFixedFunction) */
 303:Generated_Source\PSoC5/PWMA.c ****         }
 304:Generated_Source\PSoC5/PWMA.c ****     #endif /* PWMA_CompareMode1SW */
 305:Generated_Source\PSoC5/PWMA.c **** 
 306:Generated_Source\PSoC5/PWMA.c **** #else /* UseOneCompareMode */
 307:Generated_Source\PSoC5/PWMA.c **** 
 308:Generated_Source\PSoC5/PWMA.c ****     #if (PWMA_CompareMode1SW)
 309:Generated_Source\PSoC5/PWMA.c **** 
 310:Generated_Source\PSoC5/PWMA.c **** 
 311:Generated_Source\PSoC5/PWMA.c ****         /*******************************************************************************
 312:Generated_Source\PSoC5/PWMA.c ****         * Function Name: PWMA_SetCompareMode1
 313:Generated_Source\PSoC5/PWMA.c ****         ********************************************************************************
 314:Generated_Source\PSoC5/PWMA.c ****         *
 315:Generated_Source\PSoC5/PWMA.c ****         * Summary:
 316:Generated_Source\PSoC5/PWMA.c ****         *  This function writes the Compare Mode for the pwm or pwm1 output
 317:Generated_Source\PSoC5/PWMA.c ****         *
 318:Generated_Source\PSoC5/PWMA.c ****         * Parameters:
 319:Generated_Source\PSoC5/PWMA.c ****         *  comparemode:  The new compare mode for the PWM output. Use the compare types
 320:Generated_Source\PSoC5/PWMA.c ****         *                defined in the H file as input arguments.
ARM GAS  C:\Users\ryanc\AppData\Local\Temp\ccbbl6Eq.s 			page 8


 321:Generated_Source\PSoC5/PWMA.c ****         *
 322:Generated_Source\PSoC5/PWMA.c ****         * Return:
 323:Generated_Source\PSoC5/PWMA.c ****         *  None
 324:Generated_Source\PSoC5/PWMA.c ****         *
 325:Generated_Source\PSoC5/PWMA.c ****         *******************************************************************************/
 326:Generated_Source\PSoC5/PWMA.c ****         void PWMA_SetCompareMode1(uint8 comparemode) 
 327:Generated_Source\PSoC5/PWMA.c ****         {
 328:Generated_Source\PSoC5/PWMA.c ****             #if(0 != PWMA_CTRL_CMPMODE1_SHIFT)
 329:Generated_Source\PSoC5/PWMA.c ****                 uint8 comparemodemasked = ((uint8)((uint8)comparemode << PWMA_CTRL_CMPMODE1_SHIFT))
 330:Generated_Source\PSoC5/PWMA.c ****                                            PWMA_CTRL_CMPMODE1_MASK;
 331:Generated_Source\PSoC5/PWMA.c ****             #else
 332:Generated_Source\PSoC5/PWMA.c ****                 uint8 comparemodemasked = comparemode & PWMA_CTRL_CMPMODE1_MASK;
 333:Generated_Source\PSoC5/PWMA.c ****             #endif /* (0 != PWMA_CTRL_CMPMODE1_SHIFT) */
 334:Generated_Source\PSoC5/PWMA.c **** 
 335:Generated_Source\PSoC5/PWMA.c ****             #if (PWMA_UseControl)
 336:Generated_Source\PSoC5/PWMA.c ****                 PWMA_CONTROL &= ((uint8)(~PWMA_CTRL_CMPMODE1_MASK)); /*Clear existing mode */
 337:Generated_Source\PSoC5/PWMA.c ****                 PWMA_CONTROL |= comparemodemasked;
 338:Generated_Source\PSoC5/PWMA.c ****             #endif /* (PWMA_UseControl) */
 339:Generated_Source\PSoC5/PWMA.c ****         }
 340:Generated_Source\PSoC5/PWMA.c ****     #endif /* PWMA_CompareMode1SW */
 341:Generated_Source\PSoC5/PWMA.c **** 
 342:Generated_Source\PSoC5/PWMA.c **** #if (PWMA_CompareMode2SW)
 343:Generated_Source\PSoC5/PWMA.c **** 
 344:Generated_Source\PSoC5/PWMA.c **** 
 345:Generated_Source\PSoC5/PWMA.c ****     /*******************************************************************************
 346:Generated_Source\PSoC5/PWMA.c ****     * Function Name: PWMA_SetCompareMode2
 347:Generated_Source\PSoC5/PWMA.c ****     ********************************************************************************
 348:Generated_Source\PSoC5/PWMA.c ****     *
 349:Generated_Source\PSoC5/PWMA.c ****     * Summary:
 350:Generated_Source\PSoC5/PWMA.c ****     *  This function writes the Compare Mode for the pwm or pwm2 output
 351:Generated_Source\PSoC5/PWMA.c ****     *
 352:Generated_Source\PSoC5/PWMA.c ****     * Parameters:
 353:Generated_Source\PSoC5/PWMA.c ****     *  comparemode:  The new compare mode for the PWM output. Use the compare types
 354:Generated_Source\PSoC5/PWMA.c ****     *                defined in the H file as input arguments.
 355:Generated_Source\PSoC5/PWMA.c ****     *
 356:Generated_Source\PSoC5/PWMA.c ****     * Return:
 357:Generated_Source\PSoC5/PWMA.c ****     *  None
 358:Generated_Source\PSoC5/PWMA.c ****     *
 359:Generated_Source\PSoC5/PWMA.c ****     *******************************************************************************/
 360:Generated_Source\PSoC5/PWMA.c ****     void PWMA_SetCompareMode2(uint8 comparemode) 
 361:Generated_Source\PSoC5/PWMA.c ****     {
 362:Generated_Source\PSoC5/PWMA.c **** 
 363:Generated_Source\PSoC5/PWMA.c ****         #if(0 != PWMA_CTRL_CMPMODE2_SHIFT)
 364:Generated_Source\PSoC5/PWMA.c ****             uint8 comparemodemasked = ((uint8)((uint8)comparemode << PWMA_CTRL_CMPMODE2_SHIFT)) &
 365:Generated_Source\PSoC5/PWMA.c ****                                                  PWMA_CTRL_CMPMODE2_MASK;
 366:Generated_Source\PSoC5/PWMA.c ****         #else
 367:Generated_Source\PSoC5/PWMA.c ****             uint8 comparemodemasked = comparemode & PWMA_CTRL_CMPMODE2_MASK;
 368:Generated_Source\PSoC5/PWMA.c ****         #endif /* (0 != PWMA_CTRL_CMPMODE2_SHIFT) */
 369:Generated_Source\PSoC5/PWMA.c **** 
 370:Generated_Source\PSoC5/PWMA.c ****         #if (PWMA_UseControl)
 371:Generated_Source\PSoC5/PWMA.c ****             PWMA_CONTROL &= ((uint8)(~PWMA_CTRL_CMPMODE2_MASK)); /*Clear existing mode */
 372:Generated_Source\PSoC5/PWMA.c ****             PWMA_CONTROL |= comparemodemasked;
 373:Generated_Source\PSoC5/PWMA.c ****         #endif /* (PWMA_UseControl) */
 374:Generated_Source\PSoC5/PWMA.c ****     }
 375:Generated_Source\PSoC5/PWMA.c ****     #endif /*PWMA_CompareMode2SW */
 376:Generated_Source\PSoC5/PWMA.c **** 
 377:Generated_Source\PSoC5/PWMA.c **** #endif /* UseOneCompareMode */
ARM GAS  C:\Users\ryanc\AppData\Local\Temp\ccbbl6Eq.s 			page 9


 378:Generated_Source\PSoC5/PWMA.c **** 
 379:Generated_Source\PSoC5/PWMA.c **** 
 380:Generated_Source\PSoC5/PWMA.c **** #if (!PWMA_UsingFixedFunction)
 381:Generated_Source\PSoC5/PWMA.c **** 
 382:Generated_Source\PSoC5/PWMA.c **** 
 383:Generated_Source\PSoC5/PWMA.c ****     /*******************************************************************************
 384:Generated_Source\PSoC5/PWMA.c ****     * Function Name: PWMA_WriteCounter
 385:Generated_Source\PSoC5/PWMA.c ****     ********************************************************************************
 386:Generated_Source\PSoC5/PWMA.c ****     *
 387:Generated_Source\PSoC5/PWMA.c ****     * Summary:
 388:Generated_Source\PSoC5/PWMA.c ****     *  Writes a new counter value directly to the counter register. This will be
 389:Generated_Source\PSoC5/PWMA.c ****     *  implemented for that currently running period and only that period. This API
 390:Generated_Source\PSoC5/PWMA.c ****     *  is valid only for UDB implementation and not available for fixed function
 391:Generated_Source\PSoC5/PWMA.c ****     *  PWM implementation.
 392:Generated_Source\PSoC5/PWMA.c ****     *
 393:Generated_Source\PSoC5/PWMA.c ****     * Parameters:
 394:Generated_Source\PSoC5/PWMA.c ****     *  counter:  The period new period counter value.
 395:Generated_Source\PSoC5/PWMA.c ****     *
 396:Generated_Source\PSoC5/PWMA.c ****     * Return:
 397:Generated_Source\PSoC5/PWMA.c ****     *  None
 398:Generated_Source\PSoC5/PWMA.c ****     *
 399:Generated_Source\PSoC5/PWMA.c ****     * Side Effects:
 400:Generated_Source\PSoC5/PWMA.c ****     *  The PWM Period will be reloaded when a counter value will be a zero
 401:Generated_Source\PSoC5/PWMA.c ****     *
 402:Generated_Source\PSoC5/PWMA.c ****     *******************************************************************************/
 403:Generated_Source\PSoC5/PWMA.c ****     void PWMA_WriteCounter(uint16 counter) \
 404:Generated_Source\PSoC5/PWMA.c ****                                        
 405:Generated_Source\PSoC5/PWMA.c ****     {
  80              		.loc 1 405 0
  81              		.cfi_startproc
  82              		@ args = 0, pretend = 0, frame = 0
  83              		@ frame_needed = 0, uses_anonymous_args = 0
  84              		@ link register save eliminated.
  85              	.LVL0:
 406:Generated_Source\PSoC5/PWMA.c ****         CY_SET_REG16(PWMA_COUNTER_LSB_PTR, counter);
  86              		.loc 1 406 0
  87 0000 014B     		ldr	r3, .L8
  88 0002 1880     		strh	r0, [r3]	@ movhi
  89 0004 7047     		bx	lr
  90              	.L9:
  91 0006 00BF     		.align	2
  92              	.L8:
  93 0008 08680040 		.word	1073768456
  94              		.cfi_endproc
  95              	.LFE4:
  96              		.size	PWMA_WriteCounter, .-PWMA_WriteCounter
  97              		.section	.text.PWMA_ReadCounter,"ax",%progbits
  98              		.align	2
  99              		.global	PWMA_ReadCounter
 100              		.thumb
 101              		.thumb_func
 102              		.type	PWMA_ReadCounter, %function
 103              	PWMA_ReadCounter:
 104              	.LFB5:
 407:Generated_Source\PSoC5/PWMA.c ****     }
 408:Generated_Source\PSoC5/PWMA.c **** 
 409:Generated_Source\PSoC5/PWMA.c **** 
ARM GAS  C:\Users\ryanc\AppData\Local\Temp\ccbbl6Eq.s 			page 10


 410:Generated_Source\PSoC5/PWMA.c ****     /*******************************************************************************
 411:Generated_Source\PSoC5/PWMA.c ****     * Function Name: PWMA_ReadCounter
 412:Generated_Source\PSoC5/PWMA.c ****     ********************************************************************************
 413:Generated_Source\PSoC5/PWMA.c ****     *
 414:Generated_Source\PSoC5/PWMA.c ****     * Summary:
 415:Generated_Source\PSoC5/PWMA.c ****     *  This function returns the current value of the counter.  It doesn't matter
 416:Generated_Source\PSoC5/PWMA.c ****     *  if the counter is enabled or running.
 417:Generated_Source\PSoC5/PWMA.c ****     *
 418:Generated_Source\PSoC5/PWMA.c ****     * Parameters:
 419:Generated_Source\PSoC5/PWMA.c ****     *  None
 420:Generated_Source\PSoC5/PWMA.c ****     *
 421:Generated_Source\PSoC5/PWMA.c ****     * Return:
 422:Generated_Source\PSoC5/PWMA.c ****     *  The current value of the counter.
 423:Generated_Source\PSoC5/PWMA.c ****     *
 424:Generated_Source\PSoC5/PWMA.c ****     *******************************************************************************/
 425:Generated_Source\PSoC5/PWMA.c ****     uint16 PWMA_ReadCounter(void) 
 426:Generated_Source\PSoC5/PWMA.c ****     {
 105              		.loc 1 426 0
 106              		.cfi_startproc
 107              		@ args = 0, pretend = 0, frame = 0
 108              		@ frame_needed = 0, uses_anonymous_args = 0
 109              		@ link register save eliminated.
 427:Generated_Source\PSoC5/PWMA.c ****         /* Force capture by reading Accumulator */
 428:Generated_Source\PSoC5/PWMA.c ****         /* Must first do a software capture to be able to read the counter */
 429:Generated_Source\PSoC5/PWMA.c ****         /* It is up to the user code to make sure there isn't already captured data in the FIFO */
 430:Generated_Source\PSoC5/PWMA.c ****           (void)CY_GET_REG8(PWMA_COUNTERCAP_LSB_PTR_8BIT);
 110              		.loc 1 430 0
 111 0000 024B     		ldr	r3, .L11
 112 0002 1B78     		ldrb	r3, [r3]	@ zero_extendqisi2
 431:Generated_Source\PSoC5/PWMA.c **** 
 432:Generated_Source\PSoC5/PWMA.c ****         /* Read the data from the FIFO */
 433:Generated_Source\PSoC5/PWMA.c ****         return (CY_GET_REG16(PWMA_CAPTURE_LSB_PTR));
 113              		.loc 1 433 0
 114 0004 024B     		ldr	r3, .L11+4
 115 0006 1888     		ldrh	r0, [r3]
 434:Generated_Source\PSoC5/PWMA.c ****     }
 116              		.loc 1 434 0
 117 0008 80B2     		uxth	r0, r0
 118 000a 7047     		bx	lr
 119              	.L12:
 120              		.align	2
 121              	.L11:
 122 000c 14640040 		.word	1073767444
 123 0010 A8680040 		.word	1073768616
 124              		.cfi_endproc
 125              	.LFE5:
 126              		.size	PWMA_ReadCounter, .-PWMA_ReadCounter
 127              		.section	.text.PWMA_WritePeriod,"ax",%progbits
 128              		.align	2
 129              		.global	PWMA_WritePeriod
 130              		.thumb
 131              		.thumb_func
 132              		.type	PWMA_WritePeriod, %function
 133              	PWMA_WritePeriod:
 134              	.LFB7:
 435:Generated_Source\PSoC5/PWMA.c **** 
 436:Generated_Source\PSoC5/PWMA.c ****     #if (PWMA_UseStatus)
ARM GAS  C:\Users\ryanc\AppData\Local\Temp\ccbbl6Eq.s 			page 11


 437:Generated_Source\PSoC5/PWMA.c **** 
 438:Generated_Source\PSoC5/PWMA.c **** 
 439:Generated_Source\PSoC5/PWMA.c ****         /*******************************************************************************
 440:Generated_Source\PSoC5/PWMA.c ****         * Function Name: PWMA_ClearFIFO
 441:Generated_Source\PSoC5/PWMA.c ****         ********************************************************************************
 442:Generated_Source\PSoC5/PWMA.c ****         *
 443:Generated_Source\PSoC5/PWMA.c ****         * Summary:
 444:Generated_Source\PSoC5/PWMA.c ****         *  This function clears all capture data from the capture FIFO
 445:Generated_Source\PSoC5/PWMA.c ****         *
 446:Generated_Source\PSoC5/PWMA.c ****         * Parameters:
 447:Generated_Source\PSoC5/PWMA.c ****         *  None
 448:Generated_Source\PSoC5/PWMA.c ****         *
 449:Generated_Source\PSoC5/PWMA.c ****         * Return:
 450:Generated_Source\PSoC5/PWMA.c ****         *  None
 451:Generated_Source\PSoC5/PWMA.c ****         *
 452:Generated_Source\PSoC5/PWMA.c ****         *******************************************************************************/
 453:Generated_Source\PSoC5/PWMA.c ****         void PWMA_ClearFIFO(void) 
 454:Generated_Source\PSoC5/PWMA.c ****         {
 455:Generated_Source\PSoC5/PWMA.c ****             while(0u != (PWMA_ReadStatusRegister() & PWMA_STATUS_FIFONEMPTY))
 456:Generated_Source\PSoC5/PWMA.c ****             {
 457:Generated_Source\PSoC5/PWMA.c ****                 (void)PWMA_ReadCapture();
 458:Generated_Source\PSoC5/PWMA.c ****             }
 459:Generated_Source\PSoC5/PWMA.c ****         }
 460:Generated_Source\PSoC5/PWMA.c **** 
 461:Generated_Source\PSoC5/PWMA.c ****     #endif /* PWMA_UseStatus */
 462:Generated_Source\PSoC5/PWMA.c **** 
 463:Generated_Source\PSoC5/PWMA.c **** #endif /* !PWMA_UsingFixedFunction */
 464:Generated_Source\PSoC5/PWMA.c **** 
 465:Generated_Source\PSoC5/PWMA.c **** 
 466:Generated_Source\PSoC5/PWMA.c **** /*******************************************************************************
 467:Generated_Source\PSoC5/PWMA.c **** * Function Name: PWMA_WritePeriod
 468:Generated_Source\PSoC5/PWMA.c **** ********************************************************************************
 469:Generated_Source\PSoC5/PWMA.c **** *
 470:Generated_Source\PSoC5/PWMA.c **** * Summary:
 471:Generated_Source\PSoC5/PWMA.c **** *  This function is used to change the period of the counter.  The new period
 472:Generated_Source\PSoC5/PWMA.c **** *  will be loaded the next time terminal count is detected.
 473:Generated_Source\PSoC5/PWMA.c **** *
 474:Generated_Source\PSoC5/PWMA.c **** * Parameters:
 475:Generated_Source\PSoC5/PWMA.c **** *  period:  Period value. May be between 1 and (2^Resolution)-1.  A value of 0
 476:Generated_Source\PSoC5/PWMA.c **** *           will result in the counter remaining at zero.
 477:Generated_Source\PSoC5/PWMA.c **** *
 478:Generated_Source\PSoC5/PWMA.c **** * Return:
 479:Generated_Source\PSoC5/PWMA.c **** *  None
 480:Generated_Source\PSoC5/PWMA.c **** *
 481:Generated_Source\PSoC5/PWMA.c **** *******************************************************************************/
 482:Generated_Source\PSoC5/PWMA.c **** void PWMA_WritePeriod(uint16 period) 
 483:Generated_Source\PSoC5/PWMA.c **** {
 135              		.loc 1 483 0
 136              		.cfi_startproc
 137              		@ args = 0, pretend = 0, frame = 0
 138              		@ frame_needed = 0, uses_anonymous_args = 0
 139              		@ link register save eliminated.
 140              	.LVL1:
 484:Generated_Source\PSoC5/PWMA.c ****     #if(PWMA_UsingFixedFunction)
 485:Generated_Source\PSoC5/PWMA.c ****         CY_SET_REG16(PWMA_PERIOD_LSB_PTR, (uint16)period);
 486:Generated_Source\PSoC5/PWMA.c ****     #else
 487:Generated_Source\PSoC5/PWMA.c ****         CY_SET_REG16(PWMA_PERIOD_LSB_PTR, period);
ARM GAS  C:\Users\ryanc\AppData\Local\Temp\ccbbl6Eq.s 			page 12


 141              		.loc 1 487 0
 142 0000 014B     		ldr	r3, .L14
 143 0002 1880     		strh	r0, [r3]	@ movhi
 144 0004 7047     		bx	lr
 145              	.L15:
 146 0006 00BF     		.align	2
 147              	.L14:
 148 0008 88680040 		.word	1073768584
 149              		.cfi_endproc
 150              	.LFE7:
 151              		.size	PWMA_WritePeriod, .-PWMA_WritePeriod
 152              		.section	.text.PWMA_WriteCompare1,"ax",%progbits
 153              		.align	2
 154              		.global	PWMA_WriteCompare1
 155              		.thumb
 156              		.thumb_func
 157              		.type	PWMA_WriteCompare1, %function
 158              	PWMA_WriteCompare1:
 159              	.LFB8:
 488:Generated_Source\PSoC5/PWMA.c ****     #endif /* (PWMA_UsingFixedFunction) */
 489:Generated_Source\PSoC5/PWMA.c **** }
 490:Generated_Source\PSoC5/PWMA.c **** 
 491:Generated_Source\PSoC5/PWMA.c **** #if (PWMA_UseOneCompareMode)
 492:Generated_Source\PSoC5/PWMA.c **** 
 493:Generated_Source\PSoC5/PWMA.c **** 
 494:Generated_Source\PSoC5/PWMA.c ****     /*******************************************************************************
 495:Generated_Source\PSoC5/PWMA.c ****     * Function Name: PWMA_WriteCompare
 496:Generated_Source\PSoC5/PWMA.c ****     ********************************************************************************
 497:Generated_Source\PSoC5/PWMA.c ****     *
 498:Generated_Source\PSoC5/PWMA.c ****     * Summary:
 499:Generated_Source\PSoC5/PWMA.c ****     *  This funtion is used to change the compare1 value when the PWM is in Dither
 500:Generated_Source\PSoC5/PWMA.c ****     *  mode. The compare output will reflect the new value on the next UDB clock.
 501:Generated_Source\PSoC5/PWMA.c ****     *  The compare output will be driven high when the present counter value is
 502:Generated_Source\PSoC5/PWMA.c ****     *  compared to the compare value based on the compare mode defined in
 503:Generated_Source\PSoC5/PWMA.c ****     *  Dither Mode.
 504:Generated_Source\PSoC5/PWMA.c ****     *
 505:Generated_Source\PSoC5/PWMA.c ****     * Parameters:
 506:Generated_Source\PSoC5/PWMA.c ****     *  compare:  New compare value.
 507:Generated_Source\PSoC5/PWMA.c ****     *
 508:Generated_Source\PSoC5/PWMA.c ****     * Return:
 509:Generated_Source\PSoC5/PWMA.c ****     *  None
 510:Generated_Source\PSoC5/PWMA.c ****     *
 511:Generated_Source\PSoC5/PWMA.c ****     * Side Effects:
 512:Generated_Source\PSoC5/PWMA.c ****     *  This function is only available if the PWM mode parameter is set to
 513:Generated_Source\PSoC5/PWMA.c ****     *  Dither Mode, Center Aligned Mode or One Output Mode
 514:Generated_Source\PSoC5/PWMA.c ****     *
 515:Generated_Source\PSoC5/PWMA.c ****     *******************************************************************************/
 516:Generated_Source\PSoC5/PWMA.c ****     void PWMA_WriteCompare(uint16 compare) \
 517:Generated_Source\PSoC5/PWMA.c ****                                        
 518:Generated_Source\PSoC5/PWMA.c ****     {
 519:Generated_Source\PSoC5/PWMA.c ****         #if(PWMA_UsingFixedFunction)
 520:Generated_Source\PSoC5/PWMA.c ****             CY_SET_REG16(PWMA_COMPARE1_LSB_PTR, (uint16)compare);
 521:Generated_Source\PSoC5/PWMA.c ****         #else
 522:Generated_Source\PSoC5/PWMA.c ****             CY_SET_REG16(PWMA_COMPARE1_LSB_PTR, compare);
 523:Generated_Source\PSoC5/PWMA.c ****         #endif /* (PWMA_UsingFixedFunction) */
 524:Generated_Source\PSoC5/PWMA.c **** 
 525:Generated_Source\PSoC5/PWMA.c ****         #if (PWMA_PWMMode == PWMA__B_PWM__DITHER)
ARM GAS  C:\Users\ryanc\AppData\Local\Temp\ccbbl6Eq.s 			page 13


 526:Generated_Source\PSoC5/PWMA.c ****             #if(PWMA_UsingFixedFunction)
 527:Generated_Source\PSoC5/PWMA.c ****                 CY_SET_REG16(PWMA_COMPARE2_LSB_PTR, (uint16)(compare + 1u));
 528:Generated_Source\PSoC5/PWMA.c ****             #else
 529:Generated_Source\PSoC5/PWMA.c ****                 CY_SET_REG16(PWMA_COMPARE2_LSB_PTR, (compare + 1u));
 530:Generated_Source\PSoC5/PWMA.c ****             #endif /* (PWMA_UsingFixedFunction) */
 531:Generated_Source\PSoC5/PWMA.c ****         #endif /* (PWMA_PWMMode == PWMA__B_PWM__DITHER) */
 532:Generated_Source\PSoC5/PWMA.c ****     }
 533:Generated_Source\PSoC5/PWMA.c **** 
 534:Generated_Source\PSoC5/PWMA.c **** 
 535:Generated_Source\PSoC5/PWMA.c **** #else
 536:Generated_Source\PSoC5/PWMA.c **** 
 537:Generated_Source\PSoC5/PWMA.c **** 
 538:Generated_Source\PSoC5/PWMA.c ****     /*******************************************************************************
 539:Generated_Source\PSoC5/PWMA.c ****     * Function Name: PWMA_WriteCompare1
 540:Generated_Source\PSoC5/PWMA.c ****     ********************************************************************************
 541:Generated_Source\PSoC5/PWMA.c ****     *
 542:Generated_Source\PSoC5/PWMA.c ****     * Summary:
 543:Generated_Source\PSoC5/PWMA.c ****     *  This funtion is used to change the compare1 value.  The compare output will
 544:Generated_Source\PSoC5/PWMA.c ****     *  reflect the new value on the next UDB clock.  The compare output will be
 545:Generated_Source\PSoC5/PWMA.c ****     *  driven high when the present counter value is less than or less than or
 546:Generated_Source\PSoC5/PWMA.c ****     *  equal to the compare register, depending on the mode.
 547:Generated_Source\PSoC5/PWMA.c ****     *
 548:Generated_Source\PSoC5/PWMA.c ****     * Parameters:
 549:Generated_Source\PSoC5/PWMA.c ****     *  compare:  New compare value.
 550:Generated_Source\PSoC5/PWMA.c ****     *
 551:Generated_Source\PSoC5/PWMA.c ****     * Return:
 552:Generated_Source\PSoC5/PWMA.c ****     *  None
 553:Generated_Source\PSoC5/PWMA.c ****     *
 554:Generated_Source\PSoC5/PWMA.c ****     *******************************************************************************/
 555:Generated_Source\PSoC5/PWMA.c ****     void PWMA_WriteCompare1(uint16 compare) \
 556:Generated_Source\PSoC5/PWMA.c ****                                         
 557:Generated_Source\PSoC5/PWMA.c ****     {
 160              		.loc 1 557 0
 161              		.cfi_startproc
 162              		@ args = 0, pretend = 0, frame = 0
 163              		@ frame_needed = 0, uses_anonymous_args = 0
 164              		@ link register save eliminated.
 165              	.LVL2:
 558:Generated_Source\PSoC5/PWMA.c ****         #if(PWMA_UsingFixedFunction)
 559:Generated_Source\PSoC5/PWMA.c ****             CY_SET_REG16(PWMA_COMPARE1_LSB_PTR, (uint16)compare);
 560:Generated_Source\PSoC5/PWMA.c ****         #else
 561:Generated_Source\PSoC5/PWMA.c ****             CY_SET_REG16(PWMA_COMPARE1_LSB_PTR, compare);
 166              		.loc 1 561 0
 167 0000 014B     		ldr	r3, .L17
 168 0002 1880     		strh	r0, [r3]	@ movhi
 169 0004 7047     		bx	lr
 170              	.L18:
 171 0006 00BF     		.align	2
 172              	.L17:
 173 0008 48680040 		.word	1073768520
 174              		.cfi_endproc
 175              	.LFE8:
 176              		.size	PWMA_WriteCompare1, .-PWMA_WriteCompare1
 177              		.section	.text.PWMA_WriteCompare2,"ax",%progbits
 178              		.align	2
 179              		.global	PWMA_WriteCompare2
 180              		.thumb
ARM GAS  C:\Users\ryanc\AppData\Local\Temp\ccbbl6Eq.s 			page 14


 181              		.thumb_func
 182              		.type	PWMA_WriteCompare2, %function
 183              	PWMA_WriteCompare2:
 184              	.LFB9:
 562:Generated_Source\PSoC5/PWMA.c ****         #endif /* (PWMA_UsingFixedFunction) */
 563:Generated_Source\PSoC5/PWMA.c ****     }
 564:Generated_Source\PSoC5/PWMA.c **** 
 565:Generated_Source\PSoC5/PWMA.c **** 
 566:Generated_Source\PSoC5/PWMA.c ****     /*******************************************************************************
 567:Generated_Source\PSoC5/PWMA.c ****     * Function Name: PWMA_WriteCompare2
 568:Generated_Source\PSoC5/PWMA.c ****     ********************************************************************************
 569:Generated_Source\PSoC5/PWMA.c ****     *
 570:Generated_Source\PSoC5/PWMA.c ****     * Summary:
 571:Generated_Source\PSoC5/PWMA.c ****     *  This funtion is used to change the compare value, for compare1 output.
 572:Generated_Source\PSoC5/PWMA.c ****     *  The compare output will reflect the new value on the next UDB clock.
 573:Generated_Source\PSoC5/PWMA.c ****     *  The compare output will be driven high when the present counter value is
 574:Generated_Source\PSoC5/PWMA.c ****     *  less than or less than or equal to the compare register, depending on the
 575:Generated_Source\PSoC5/PWMA.c ****     *  mode.
 576:Generated_Source\PSoC5/PWMA.c ****     *
 577:Generated_Source\PSoC5/PWMA.c ****     * Parameters:
 578:Generated_Source\PSoC5/PWMA.c ****     *  compare:  New compare value.
 579:Generated_Source\PSoC5/PWMA.c ****     *
 580:Generated_Source\PSoC5/PWMA.c ****     * Return:
 581:Generated_Source\PSoC5/PWMA.c ****     *  None
 582:Generated_Source\PSoC5/PWMA.c ****     *
 583:Generated_Source\PSoC5/PWMA.c ****     *******************************************************************************/
 584:Generated_Source\PSoC5/PWMA.c ****     void PWMA_WriteCompare2(uint16 compare) \
 585:Generated_Source\PSoC5/PWMA.c ****                                         
 586:Generated_Source\PSoC5/PWMA.c ****     {
 185              		.loc 1 586 0
 186              		.cfi_startproc
 187              		@ args = 0, pretend = 0, frame = 0
 188              		@ frame_needed = 0, uses_anonymous_args = 0
 189              		@ link register save eliminated.
 190              	.LVL3:
 587:Generated_Source\PSoC5/PWMA.c ****         #if(PWMA_UsingFixedFunction)
 588:Generated_Source\PSoC5/PWMA.c ****             CY_SET_REG16(PWMA_COMPARE2_LSB_PTR, compare);
 589:Generated_Source\PSoC5/PWMA.c ****         #else
 590:Generated_Source\PSoC5/PWMA.c ****             CY_SET_REG16(PWMA_COMPARE2_LSB_PTR, compare);
 191              		.loc 1 590 0
 192 0000 014B     		ldr	r3, .L20
 193 0002 1880     		strh	r0, [r3]	@ movhi
 194 0004 7047     		bx	lr
 195              	.L21:
 196 0006 00BF     		.align	2
 197              	.L20:
 198 0008 68680040 		.word	1073768552
 199              		.cfi_endproc
 200              	.LFE9:
 201              		.size	PWMA_WriteCompare2, .-PWMA_WriteCompare2
 202              		.section	.text.PWMA_WriteDeadTime,"ax",%progbits
 203              		.align	2
 204              		.global	PWMA_WriteDeadTime
 205              		.thumb
 206              		.thumb_func
 207              		.type	PWMA_WriteDeadTime, %function
 208              	PWMA_WriteDeadTime:
ARM GAS  C:\Users\ryanc\AppData\Local\Temp\ccbbl6Eq.s 			page 15


 209              	.LFB10:
 591:Generated_Source\PSoC5/PWMA.c ****         #endif /* (PWMA_UsingFixedFunction) */
 592:Generated_Source\PSoC5/PWMA.c ****     }
 593:Generated_Source\PSoC5/PWMA.c **** #endif /* UseOneCompareMode */
 594:Generated_Source\PSoC5/PWMA.c **** 
 595:Generated_Source\PSoC5/PWMA.c **** #if (PWMA_DeadBandUsed)
 596:Generated_Source\PSoC5/PWMA.c **** 
 597:Generated_Source\PSoC5/PWMA.c **** 
 598:Generated_Source\PSoC5/PWMA.c ****     /*******************************************************************************
 599:Generated_Source\PSoC5/PWMA.c ****     * Function Name: PWMA_WriteDeadTime
 600:Generated_Source\PSoC5/PWMA.c ****     ********************************************************************************
 601:Generated_Source\PSoC5/PWMA.c ****     *
 602:Generated_Source\PSoC5/PWMA.c ****     * Summary:
 603:Generated_Source\PSoC5/PWMA.c ****     *  This function writes the dead-band counts to the corresponding register
 604:Generated_Source\PSoC5/PWMA.c ****     *
 605:Generated_Source\PSoC5/PWMA.c ****     * Parameters:
 606:Generated_Source\PSoC5/PWMA.c ****     *  deadtime:  Number of counts for dead time
 607:Generated_Source\PSoC5/PWMA.c ****     *
 608:Generated_Source\PSoC5/PWMA.c ****     * Return:
 609:Generated_Source\PSoC5/PWMA.c ****     *  None
 610:Generated_Source\PSoC5/PWMA.c ****     *
 611:Generated_Source\PSoC5/PWMA.c ****     *******************************************************************************/
 612:Generated_Source\PSoC5/PWMA.c ****     void PWMA_WriteDeadTime(uint8 deadtime) 
 613:Generated_Source\PSoC5/PWMA.c ****     {
 210              		.loc 1 613 0
 211              		.cfi_startproc
 212              		@ args = 0, pretend = 0, frame = 0
 213              		@ frame_needed = 0, uses_anonymous_args = 0
 214              		@ link register save eliminated.
 215              	.LVL4:
 614:Generated_Source\PSoC5/PWMA.c ****         /* If using the Dead Band 1-255 mode then just write the register */
 615:Generated_Source\PSoC5/PWMA.c ****         #if(!PWMA_DeadBand2_4)
 616:Generated_Source\PSoC5/PWMA.c ****             CY_SET_REG8(PWMA_DEADBAND_COUNT_PTR, deadtime);
 617:Generated_Source\PSoC5/PWMA.c ****         #else
 618:Generated_Source\PSoC5/PWMA.c ****             /* Otherwise the data has to be masked and offset */
 619:Generated_Source\PSoC5/PWMA.c ****             /* Clear existing data */
 620:Generated_Source\PSoC5/PWMA.c ****             PWMA_DEADBAND_COUNT &= ((uint8)(~PWMA_DEADBAND_COUNT_MASK));
 216              		.loc 1 620 0
 217 0000 054B     		ldr	r3, .L23
 218 0002 1A78     		ldrb	r2, [r3]	@ zero_extendqisi2
 219 0004 02F0FC02 		and	r2, r2, #252
 220 0008 1A70     		strb	r2, [r3]
 621:Generated_Source\PSoC5/PWMA.c **** 
 622:Generated_Source\PSoC5/PWMA.c ****             /* Set new dead time */
 623:Generated_Source\PSoC5/PWMA.c ****             #if(PWMA_DEADBAND_COUNT_SHIFT)
 624:Generated_Source\PSoC5/PWMA.c ****                 PWMA_DEADBAND_COUNT |= ((uint8)((uint8)deadtime << PWMA_DEADBAND_COUNT_SHIFT)) &
 625:Generated_Source\PSoC5/PWMA.c ****                                                     PWMA_DEADBAND_COUNT_MASK;
 626:Generated_Source\PSoC5/PWMA.c ****             #else
 627:Generated_Source\PSoC5/PWMA.c ****                 PWMA_DEADBAND_COUNT |= deadtime & PWMA_DEADBAND_COUNT_MASK;
 221              		.loc 1 627 0
 222 000a 1A78     		ldrb	r2, [r3]	@ zero_extendqisi2
 223 000c 00F00300 		and	r0, r0, #3
 224              	.LVL5:
 225 0010 1043     		orrs	r0, r0, r2
 226 0012 1870     		strb	r0, [r3]
 227 0014 7047     		bx	lr
 228              	.L24:
ARM GAS  C:\Users\ryanc\AppData\Local\Temp\ccbbl6Eq.s 			page 16


 229 0016 00BF     		.align	2
 230              	.L23:
 231 0018 71640040 		.word	1073767537
 232              		.cfi_endproc
 233              	.LFE10:
 234              		.size	PWMA_WriteDeadTime, .-PWMA_WriteDeadTime
 235              		.section	.text.PWMA_ReadDeadTime,"ax",%progbits
 236              		.align	2
 237              		.global	PWMA_ReadDeadTime
 238              		.thumb
 239              		.thumb_func
 240              		.type	PWMA_ReadDeadTime, %function
 241              	PWMA_ReadDeadTime:
 242              	.LFB11:
 628:Generated_Source\PSoC5/PWMA.c ****             #endif /* (PWMA_DEADBAND_COUNT_SHIFT) */
 629:Generated_Source\PSoC5/PWMA.c **** 
 630:Generated_Source\PSoC5/PWMA.c ****         #endif /* (!PWMA_DeadBand2_4) */
 631:Generated_Source\PSoC5/PWMA.c ****     }
 632:Generated_Source\PSoC5/PWMA.c **** 
 633:Generated_Source\PSoC5/PWMA.c **** 
 634:Generated_Source\PSoC5/PWMA.c ****     /*******************************************************************************
 635:Generated_Source\PSoC5/PWMA.c ****     * Function Name: PWMA_ReadDeadTime
 636:Generated_Source\PSoC5/PWMA.c ****     ********************************************************************************
 637:Generated_Source\PSoC5/PWMA.c ****     *
 638:Generated_Source\PSoC5/PWMA.c ****     * Summary:
 639:Generated_Source\PSoC5/PWMA.c ****     *  This function reads the dead-band counts from the corresponding register
 640:Generated_Source\PSoC5/PWMA.c ****     *
 641:Generated_Source\PSoC5/PWMA.c ****     * Parameters:
 642:Generated_Source\PSoC5/PWMA.c ****     *  None
 643:Generated_Source\PSoC5/PWMA.c ****     *
 644:Generated_Source\PSoC5/PWMA.c ****     * Return:
 645:Generated_Source\PSoC5/PWMA.c ****     *  Dead Band Counts
 646:Generated_Source\PSoC5/PWMA.c ****     *
 647:Generated_Source\PSoC5/PWMA.c ****     *******************************************************************************/
 648:Generated_Source\PSoC5/PWMA.c ****     uint8 PWMA_ReadDeadTime(void) 
 649:Generated_Source\PSoC5/PWMA.c ****     {
 243              		.loc 1 649 0
 244              		.cfi_startproc
 245              		@ args = 0, pretend = 0, frame = 0
 246              		@ frame_needed = 0, uses_anonymous_args = 0
 247              		@ link register save eliminated.
 650:Generated_Source\PSoC5/PWMA.c ****         /* If using the Dead Band 1-255 mode then just read the register */
 651:Generated_Source\PSoC5/PWMA.c ****         #if(!PWMA_DeadBand2_4)
 652:Generated_Source\PSoC5/PWMA.c ****             return (CY_GET_REG8(PWMA_DEADBAND_COUNT_PTR));
 653:Generated_Source\PSoC5/PWMA.c ****         #else
 654:Generated_Source\PSoC5/PWMA.c **** 
 655:Generated_Source\PSoC5/PWMA.c ****             /* Otherwise the data has to be masked and offset */
 656:Generated_Source\PSoC5/PWMA.c ****             #if(PWMA_DEADBAND_COUNT_SHIFT)
 657:Generated_Source\PSoC5/PWMA.c ****                 return ((uint8)(((uint8)(PWMA_DEADBAND_COUNT & PWMA_DEADBAND_COUNT_MASK)) >>
 658:Generated_Source\PSoC5/PWMA.c ****                                                                            PWMA_DEADBAND_COUNT_SHIF
 659:Generated_Source\PSoC5/PWMA.c ****             #else
 660:Generated_Source\PSoC5/PWMA.c ****                 return (PWMA_DEADBAND_COUNT & PWMA_DEADBAND_COUNT_MASK);
 248              		.loc 1 660 0
 249 0000 024B     		ldr	r3, .L26
 250 0002 1878     		ldrb	r0, [r3]	@ zero_extendqisi2
 661:Generated_Source\PSoC5/PWMA.c ****             #endif /* (PWMA_DEADBAND_COUNT_SHIFT) */
 662:Generated_Source\PSoC5/PWMA.c ****         #endif /* (!PWMA_DeadBand2_4) */
ARM GAS  C:\Users\ryanc\AppData\Local\Temp\ccbbl6Eq.s 			page 17


 663:Generated_Source\PSoC5/PWMA.c ****     }
 251              		.loc 1 663 0
 252 0004 00F00300 		and	r0, r0, #3
 253 0008 7047     		bx	lr
 254              	.L27:
 255 000a 00BF     		.align	2
 256              	.L26:
 257 000c 71640040 		.word	1073767537
 258              		.cfi_endproc
 259              	.LFE11:
 260              		.size	PWMA_ReadDeadTime, .-PWMA_ReadDeadTime
 261              		.section	.text.PWMA_SetInterruptMode,"ax",%progbits
 262              		.align	2
 263              		.global	PWMA_SetInterruptMode
 264              		.thumb
 265              		.thumb_func
 266              		.type	PWMA_SetInterruptMode, %function
 267              	PWMA_SetInterruptMode:
 268              	.LFB12:
 664:Generated_Source\PSoC5/PWMA.c **** #endif /* DeadBandUsed */
 665:Generated_Source\PSoC5/PWMA.c **** 
 666:Generated_Source\PSoC5/PWMA.c **** #if (PWMA_UseStatus || PWMA_UsingFixedFunction)
 667:Generated_Source\PSoC5/PWMA.c **** 
 668:Generated_Source\PSoC5/PWMA.c **** 
 669:Generated_Source\PSoC5/PWMA.c ****     /*******************************************************************************
 670:Generated_Source\PSoC5/PWMA.c ****     * Function Name: PWMA_SetInterruptMode
 671:Generated_Source\PSoC5/PWMA.c ****     ********************************************************************************
 672:Generated_Source\PSoC5/PWMA.c ****     *
 673:Generated_Source\PSoC5/PWMA.c ****     * Summary:
 674:Generated_Source\PSoC5/PWMA.c ****     *  This function configures the interrupts mask control of theinterrupt
 675:Generated_Source\PSoC5/PWMA.c ****     *  source status register.
 676:Generated_Source\PSoC5/PWMA.c ****     *
 677:Generated_Source\PSoC5/PWMA.c ****     * Parameters:
 678:Generated_Source\PSoC5/PWMA.c ****     *  uint8 interruptMode: Bit field containing the interrupt sources enabled
 679:Generated_Source\PSoC5/PWMA.c ****     *
 680:Generated_Source\PSoC5/PWMA.c ****     * Return:
 681:Generated_Source\PSoC5/PWMA.c ****     *  None
 682:Generated_Source\PSoC5/PWMA.c ****     *
 683:Generated_Source\PSoC5/PWMA.c ****     *******************************************************************************/
 684:Generated_Source\PSoC5/PWMA.c ****     void PWMA_SetInterruptMode(uint8 interruptMode) 
 685:Generated_Source\PSoC5/PWMA.c ****     {
 269              		.loc 1 685 0
 270              		.cfi_startproc
 271              		@ args = 0, pretend = 0, frame = 0
 272              		@ frame_needed = 0, uses_anonymous_args = 0
 273              		@ link register save eliminated.
 274              	.LVL6:
 686:Generated_Source\PSoC5/PWMA.c ****         CY_SET_REG8(PWMA_STATUS_MASK_PTR, interruptMode);
 275              		.loc 1 686 0
 276 0000 014B     		ldr	r3, .L29
 277 0002 1870     		strb	r0, [r3]
 278 0004 7047     		bx	lr
 279              	.L30:
 280 0006 00BF     		.align	2
 281              	.L29:
 282 0008 85640040 		.word	1073767557
 283              		.cfi_endproc
ARM GAS  C:\Users\ryanc\AppData\Local\Temp\ccbbl6Eq.s 			page 18


 284              	.LFE12:
 285              		.size	PWMA_SetInterruptMode, .-PWMA_SetInterruptMode
 286              		.section	.text.PWMA_ReadStatusRegister,"ax",%progbits
 287              		.align	2
 288              		.global	PWMA_ReadStatusRegister
 289              		.thumb
 290              		.thumb_func
 291              		.type	PWMA_ReadStatusRegister, %function
 292              	PWMA_ReadStatusRegister:
 293              	.LFB13:
 687:Generated_Source\PSoC5/PWMA.c ****     }
 688:Generated_Source\PSoC5/PWMA.c **** 
 689:Generated_Source\PSoC5/PWMA.c **** 
 690:Generated_Source\PSoC5/PWMA.c ****     /*******************************************************************************
 691:Generated_Source\PSoC5/PWMA.c ****     * Function Name: PWMA_ReadStatusRegister
 692:Generated_Source\PSoC5/PWMA.c ****     ********************************************************************************
 693:Generated_Source\PSoC5/PWMA.c ****     *
 694:Generated_Source\PSoC5/PWMA.c ****     * Summary:
 695:Generated_Source\PSoC5/PWMA.c ****     *  This function returns the current state of the status register.
 696:Generated_Source\PSoC5/PWMA.c ****     *
 697:Generated_Source\PSoC5/PWMA.c ****     * Parameters:
 698:Generated_Source\PSoC5/PWMA.c ****     *  None
 699:Generated_Source\PSoC5/PWMA.c ****     *
 700:Generated_Source\PSoC5/PWMA.c ****     * Return:
 701:Generated_Source\PSoC5/PWMA.c ****     *  uint8 : Current status register value. The status register bits are:
 702:Generated_Source\PSoC5/PWMA.c ****     *  [7:6] : Unused(0)
 703:Generated_Source\PSoC5/PWMA.c ****     *  [5]   : Kill event output
 704:Generated_Source\PSoC5/PWMA.c ****     *  [4]   : FIFO not empty
 705:Generated_Source\PSoC5/PWMA.c ****     *  [3]   : FIFO full
 706:Generated_Source\PSoC5/PWMA.c ****     *  [2]   : Terminal count
 707:Generated_Source\PSoC5/PWMA.c ****     *  [1]   : Compare output 2
 708:Generated_Source\PSoC5/PWMA.c ****     *  [0]   : Compare output 1
 709:Generated_Source\PSoC5/PWMA.c ****     *
 710:Generated_Source\PSoC5/PWMA.c ****     *******************************************************************************/
 711:Generated_Source\PSoC5/PWMA.c ****     uint8 PWMA_ReadStatusRegister(void) 
 712:Generated_Source\PSoC5/PWMA.c ****     {
 294              		.loc 1 712 0
 295              		.cfi_startproc
 296              		@ args = 0, pretend = 0, frame = 0
 297              		@ frame_needed = 0, uses_anonymous_args = 0
 298              		@ link register save eliminated.
 713:Generated_Source\PSoC5/PWMA.c ****         return (CY_GET_REG8(PWMA_STATUS_PTR));
 299              		.loc 1 713 0
 300 0000 014B     		ldr	r3, .L32
 301 0002 1878     		ldrb	r0, [r3]	@ zero_extendqisi2
 714:Generated_Source\PSoC5/PWMA.c ****     }
 302              		.loc 1 714 0
 303 0004 7047     		bx	lr
 304              	.L33:
 305 0006 00BF     		.align	2
 306              	.L32:
 307 0008 65640040 		.word	1073767525
 308              		.cfi_endproc
 309              	.LFE13:
 310              		.size	PWMA_ReadStatusRegister, .-PWMA_ReadStatusRegister
 311              		.section	.text.PWMA_ReadControlRegister,"ax",%progbits
 312              		.align	2
ARM GAS  C:\Users\ryanc\AppData\Local\Temp\ccbbl6Eq.s 			page 19


 313              		.global	PWMA_ReadControlRegister
 314              		.thumb
 315              		.thumb_func
 316              		.type	PWMA_ReadControlRegister, %function
 317              	PWMA_ReadControlRegister:
 318              	.LFB14:
 715:Generated_Source\PSoC5/PWMA.c **** 
 716:Generated_Source\PSoC5/PWMA.c **** #endif /* (PWMA_UseStatus || PWMA_UsingFixedFunction) */
 717:Generated_Source\PSoC5/PWMA.c **** 
 718:Generated_Source\PSoC5/PWMA.c **** 
 719:Generated_Source\PSoC5/PWMA.c **** #if (PWMA_UseControl)
 720:Generated_Source\PSoC5/PWMA.c **** 
 721:Generated_Source\PSoC5/PWMA.c **** 
 722:Generated_Source\PSoC5/PWMA.c ****     /*******************************************************************************
 723:Generated_Source\PSoC5/PWMA.c ****     * Function Name: PWMA_ReadControlRegister
 724:Generated_Source\PSoC5/PWMA.c ****     ********************************************************************************
 725:Generated_Source\PSoC5/PWMA.c ****     *
 726:Generated_Source\PSoC5/PWMA.c ****     * Summary:
 727:Generated_Source\PSoC5/PWMA.c ****     *  Returns the current state of the control register. This API is available
 728:Generated_Source\PSoC5/PWMA.c ****     *  only if the control register is not removed.
 729:Generated_Source\PSoC5/PWMA.c ****     *
 730:Generated_Source\PSoC5/PWMA.c ****     * Parameters:
 731:Generated_Source\PSoC5/PWMA.c ****     *  None
 732:Generated_Source\PSoC5/PWMA.c ****     *
 733:Generated_Source\PSoC5/PWMA.c ****     * Return:
 734:Generated_Source\PSoC5/PWMA.c ****     *  uint8 : Current control register value
 735:Generated_Source\PSoC5/PWMA.c ****     *
 736:Generated_Source\PSoC5/PWMA.c ****     *******************************************************************************/
 737:Generated_Source\PSoC5/PWMA.c ****     uint8 PWMA_ReadControlRegister(void) 
 738:Generated_Source\PSoC5/PWMA.c ****     {
 319              		.loc 1 738 0
 320              		.cfi_startproc
 321              		@ args = 0, pretend = 0, frame = 0
 322              		@ frame_needed = 0, uses_anonymous_args = 0
 323              		@ link register save eliminated.
 739:Generated_Source\PSoC5/PWMA.c ****         uint8 result;
 740:Generated_Source\PSoC5/PWMA.c **** 
 741:Generated_Source\PSoC5/PWMA.c ****         result = CY_GET_REG8(PWMA_CONTROL_PTR);
 324              		.loc 1 741 0
 325 0000 014B     		ldr	r3, .L35
 326 0002 1878     		ldrb	r0, [r3]	@ zero_extendqisi2
 327              	.LVL7:
 742:Generated_Source\PSoC5/PWMA.c ****         return (result);
 743:Generated_Source\PSoC5/PWMA.c ****     }
 328              		.loc 1 743 0
 329 0004 7047     		bx	lr
 330              	.L36:
 331 0006 00BF     		.align	2
 332              	.L35:
 333 0008 74640040 		.word	1073767540
 334              		.cfi_endproc
 335              	.LFE14:
 336              		.size	PWMA_ReadControlRegister, .-PWMA_ReadControlRegister
 337              		.section	.text.PWMA_WriteControlRegister,"ax",%progbits
 338              		.align	2
 339              		.global	PWMA_WriteControlRegister
 340              		.thumb
ARM GAS  C:\Users\ryanc\AppData\Local\Temp\ccbbl6Eq.s 			page 20


 341              		.thumb_func
 342              		.type	PWMA_WriteControlRegister, %function
 343              	PWMA_WriteControlRegister:
 344              	.LFB15:
 744:Generated_Source\PSoC5/PWMA.c **** 
 745:Generated_Source\PSoC5/PWMA.c **** 
 746:Generated_Source\PSoC5/PWMA.c ****     /*******************************************************************************
 747:Generated_Source\PSoC5/PWMA.c ****     * Function Name: PWMA_WriteControlRegister
 748:Generated_Source\PSoC5/PWMA.c ****     ********************************************************************************
 749:Generated_Source\PSoC5/PWMA.c ****     *
 750:Generated_Source\PSoC5/PWMA.c ****     * Summary:
 751:Generated_Source\PSoC5/PWMA.c ****     *  Sets the bit field of the control register. This API is available only if
 752:Generated_Source\PSoC5/PWMA.c ****     *  the control register is not removed.
 753:Generated_Source\PSoC5/PWMA.c ****     *
 754:Generated_Source\PSoC5/PWMA.c ****     * Parameters:
 755:Generated_Source\PSoC5/PWMA.c ****     *  uint8 control: Control register bit field, The status register bits are:
 756:Generated_Source\PSoC5/PWMA.c ****     *  [7]   : PWM Enable
 757:Generated_Source\PSoC5/PWMA.c ****     *  [6]   : Reset
 758:Generated_Source\PSoC5/PWMA.c ****     *  [5:3] : Compare Mode2
 759:Generated_Source\PSoC5/PWMA.c ****     *  [2:0] : Compare Mode2
 760:Generated_Source\PSoC5/PWMA.c ****     *
 761:Generated_Source\PSoC5/PWMA.c ****     * Return:
 762:Generated_Source\PSoC5/PWMA.c ****     *  None
 763:Generated_Source\PSoC5/PWMA.c ****     *
 764:Generated_Source\PSoC5/PWMA.c ****     *******************************************************************************/
 765:Generated_Source\PSoC5/PWMA.c ****     void PWMA_WriteControlRegister(uint8 control) 
 766:Generated_Source\PSoC5/PWMA.c ****     {
 345              		.loc 1 766 0
 346              		.cfi_startproc
 347              		@ args = 0, pretend = 0, frame = 0
 348              		@ frame_needed = 0, uses_anonymous_args = 0
 349              		@ link register save eliminated.
 350              	.LVL8:
 767:Generated_Source\PSoC5/PWMA.c ****         CY_SET_REG8(PWMA_CONTROL_PTR, control);
 351              		.loc 1 767 0
 352 0000 014B     		ldr	r3, .L38
 353 0002 1870     		strb	r0, [r3]
 354 0004 7047     		bx	lr
 355              	.L39:
 356 0006 00BF     		.align	2
 357              	.L38:
 358 0008 74640040 		.word	1073767540
 359              		.cfi_endproc
 360              	.LFE15:
 361              		.size	PWMA_WriteControlRegister, .-PWMA_WriteControlRegister
 362              		.section	.text.PWMA_ReadCapture,"ax",%progbits
 363              		.align	2
 364              		.global	PWMA_ReadCapture
 365              		.thumb
 366              		.thumb_func
 367              		.type	PWMA_ReadCapture, %function
 368              	PWMA_ReadCapture:
 369              	.LFB16:
 768:Generated_Source\PSoC5/PWMA.c ****     }
 769:Generated_Source\PSoC5/PWMA.c **** 
 770:Generated_Source\PSoC5/PWMA.c **** #endif /* (PWMA_UseControl) */
 771:Generated_Source\PSoC5/PWMA.c **** 
ARM GAS  C:\Users\ryanc\AppData\Local\Temp\ccbbl6Eq.s 			page 21


 772:Generated_Source\PSoC5/PWMA.c **** 
 773:Generated_Source\PSoC5/PWMA.c **** #if (!PWMA_UsingFixedFunction)
 774:Generated_Source\PSoC5/PWMA.c **** 
 775:Generated_Source\PSoC5/PWMA.c **** 
 776:Generated_Source\PSoC5/PWMA.c ****     /*******************************************************************************
 777:Generated_Source\PSoC5/PWMA.c ****     * Function Name: PWMA_ReadCapture
 778:Generated_Source\PSoC5/PWMA.c ****     ********************************************************************************
 779:Generated_Source\PSoC5/PWMA.c ****     *
 780:Generated_Source\PSoC5/PWMA.c ****     * Summary:
 781:Generated_Source\PSoC5/PWMA.c ****     *  Reads the capture value from the capture FIFO.
 782:Generated_Source\PSoC5/PWMA.c ****     *
 783:Generated_Source\PSoC5/PWMA.c ****     * Parameters:
 784:Generated_Source\PSoC5/PWMA.c ****     *  None
 785:Generated_Source\PSoC5/PWMA.c ****     *
 786:Generated_Source\PSoC5/PWMA.c ****     * Return:
 787:Generated_Source\PSoC5/PWMA.c ****     *  uint8/uint16: The current capture value
 788:Generated_Source\PSoC5/PWMA.c ****     *
 789:Generated_Source\PSoC5/PWMA.c ****     *******************************************************************************/
 790:Generated_Source\PSoC5/PWMA.c ****     uint16 PWMA_ReadCapture(void) 
 791:Generated_Source\PSoC5/PWMA.c ****     {
 370              		.loc 1 791 0
 371              		.cfi_startproc
 372              		@ args = 0, pretend = 0, frame = 0
 373              		@ frame_needed = 0, uses_anonymous_args = 0
 374              		@ link register save eliminated.
 792:Generated_Source\PSoC5/PWMA.c ****         return (CY_GET_REG16(PWMA_CAPTURE_LSB_PTR));
 375              		.loc 1 792 0
 376 0000 014B     		ldr	r3, .L41
 377 0002 1888     		ldrh	r0, [r3]
 793:Generated_Source\PSoC5/PWMA.c ****     }
 378              		.loc 1 793 0
 379 0004 80B2     		uxth	r0, r0
 380 0006 7047     		bx	lr
 381              	.L42:
 382              		.align	2
 383              	.L41:
 384 0008 A8680040 		.word	1073768616
 385              		.cfi_endproc
 386              	.LFE16:
 387              		.size	PWMA_ReadCapture, .-PWMA_ReadCapture
 388              		.section	.text.PWMA_ClearFIFO,"ax",%progbits
 389              		.align	2
 390              		.global	PWMA_ClearFIFO
 391              		.thumb
 392              		.thumb_func
 393              		.type	PWMA_ClearFIFO, %function
 394              	PWMA_ClearFIFO:
 395              	.LFB6:
 454:Generated_Source\PSoC5/PWMA.c ****             while(0u != (PWMA_ReadStatusRegister() & PWMA_STATUS_FIFONEMPTY))
 396              		.loc 1 454 0
 397              		.cfi_startproc
 398              		@ args = 0, pretend = 0, frame = 0
 399              		@ frame_needed = 0, uses_anonymous_args = 0
 400 0000 08B5     		push	{r3, lr}
 401              		.cfi_def_cfa_offset 8
 402              		.cfi_offset 3, -8
 403              		.cfi_offset 14, -4
ARM GAS  C:\Users\ryanc\AppData\Local\Temp\ccbbl6Eq.s 			page 22


 455:Generated_Source\PSoC5/PWMA.c ****             {
 404              		.loc 1 455 0
 405 0002 01E0     		b	.L44
 406              	.L45:
 457:Generated_Source\PSoC5/PWMA.c ****             }
 407              		.loc 1 457 0
 408 0004 FFF7FEFF 		bl	PWMA_ReadCapture
 409              	.LVL9:
 410              	.L44:
 455:Generated_Source\PSoC5/PWMA.c ****             {
 411              		.loc 1 455 0
 412 0008 FFF7FEFF 		bl	PWMA_ReadStatusRegister
 413              	.LVL10:
 414 000c 10F0100F 		tst	r0, #16
 415 0010 F8D1     		bne	.L45
 459:Generated_Source\PSoC5/PWMA.c **** 
 416              		.loc 1 459 0
 417 0012 08BD     		pop	{r3, pc}
 418              		.cfi_endproc
 419              	.LFE6:
 420              		.size	PWMA_ClearFIFO, .-PWMA_ClearFIFO
 421              		.section	.text.PWMA_Init,"ax",%progbits
 422              		.align	2
 423              		.global	PWMA_Init
 424              		.thumb
 425              		.thumb_func
 426              		.type	PWMA_Init, %function
 427              	PWMA_Init:
 428              	.LFB1:
  85:Generated_Source\PSoC5/PWMA.c ****     #if (PWMA_UsingFixedFunction || PWMA_UseControl)
 429              		.loc 1 85 0
 430              		.cfi_startproc
 431              		@ args = 0, pretend = 0, frame = 0
 432              		@ frame_needed = 0, uses_anonymous_args = 0
 433 0000 10B5     		push	{r4, lr}
 434              		.cfi_def_cfa_offset 8
 435              		.cfi_offset 4, -8
 436              		.cfi_offset 14, -4
 117:Generated_Source\PSoC5/PWMA.c ****                 ((uint8)(~PWMA_CTRL_CMPMODE1_MASK));
 437              		.loc 1 117 0
 438 0002 194A     		ldr	r2, .L49
 439 0004 1378     		ldrb	r3, [r2]	@ zero_extendqisi2
 440 0006 03F0C003 		and	r3, r3, #192
 441              	.LVL11:
 119:Generated_Source\PSoC5/PWMA.c ****                                    PWMA_DEFAULT_COMPARE1_MODE;
 442              		.loc 1 119 0
 443 000a 43F00903 		orr	r3, r3, #9
 444              	.LVL12:
 445 000e 1370     		strb	r3, [r2]
 129:Generated_Source\PSoC5/PWMA.c ****             PWMA_AUX_CONTROLDP1 |= (PWMA_AUX_CTRL_FIFO0_CLR);
 446              		.loc 1 129 0
 447 0010 2032     		adds	r2, r2, #32
 448 0012 1378     		ldrb	r3, [r2]	@ zero_extendqisi2
 449 0014 43F00103 		orr	r3, r3, #1
 450 0018 1370     		strb	r3, [r2]
 130:Generated_Source\PSoC5/PWMA.c ****         #endif /* (PWMA_Resolution == 8) */
 451              		.loc 1 130 0
ARM GAS  C:\Users\ryanc\AppData\Local\Temp\ccbbl6Eq.s 			page 23


 452 001a 144C     		ldr	r4, .L49+4
 453 001c 2378     		ldrb	r3, [r4]	@ zero_extendqisi2
 454 001e 43F00103 		orr	r3, r3, #1
 455 0022 2370     		strb	r3, [r4]
 133:Generated_Source\PSoC5/PWMA.c ****     #endif /* (!PWMA_UsingFixedFunction) */
 456              		.loc 1 133 0
 457 0024 4FF6FE10 		movw	r0, #63998
 458 0028 FFF7FEFF 		bl	PWMA_WriteCounter
 459              	.LVL13:
 136:Generated_Source\PSoC5/PWMA.c **** 
 460              		.loc 1 136 0
 461 002c 4FF6FE10 		movw	r0, #63998
 462 0030 FFF7FEFF 		bl	PWMA_WritePeriod
 463              	.LVL14:
 141:Generated_Source\PSoC5/PWMA.c ****             PWMA_WriteCompare2(PWMA_INIT_COMPARE_VALUE2);
 464              		.loc 1 141 0
 465 0034 4FF49650 		mov	r0, #4800
 466 0038 FFF7FEFF 		bl	PWMA_WriteCompare1
 467              	.LVL15:
 142:Generated_Source\PSoC5/PWMA.c ****         #endif /* (PWMA_UseOneCompareMode) */
 468              		.loc 1 142 0
 469 003c 4FF49650 		mov	r0, #4800
 470 0040 FFF7FEFF 		bl	PWMA_WriteCompare2
 471              	.LVL16:
 150:Generated_Source\PSoC5/PWMA.c ****         #endif /* (PWMA_DeadBandUsed) */
 472              		.loc 1 150 0
 473 0044 0120     		movs	r0, #1
 474 0046 FFF7FEFF 		bl	PWMA_WriteDeadTime
 475              	.LVL17:
 154:Generated_Source\PSoC5/PWMA.c ****     #endif /* (PWMA_UseStatus || PWMA_UsingFixedFunction) */
 476              		.loc 1 154 0
 477 004a 0020     		movs	r0, #0
 478 004c FFF7FEFF 		bl	PWMA_SetInterruptMode
 479              	.LVL18:
 167:Generated_Source\PSoC5/PWMA.c ****             /* Use the interrupt output of the status register for IRQ output */
 480              		.loc 1 167 0
 481 0050 FFF7FEFF 		bl	CyEnterCriticalSection
 482              	.LVL19:
 169:Generated_Source\PSoC5/PWMA.c **** 
 483              		.loc 1 169 0
 484 0054 2378     		ldrb	r3, [r4]	@ zero_extendqisi2
 485 0056 43F01003 		orr	r3, r3, #16
 486 005a 2370     		strb	r3, [r4]
 172:Generated_Source\PSoC5/PWMA.c **** 
 487              		.loc 1 172 0
 488 005c FFF7FEFF 		bl	CyExitCriticalSection
 489              	.LVL20:
 176:Generated_Source\PSoC5/PWMA.c ****         #endif /* (PWMA_UseStatus) */
 490              		.loc 1 176 0
 491 0060 FFF7FEFF 		bl	PWMA_ClearFIFO
 492              	.LVL21:
 493 0064 10BD     		pop	{r4, pc}
 494              	.L50:
 495 0066 00BF     		.align	2
 496              	.L49:
 497 0068 74640040 		.word	1073767540
 498 006c 95640040 		.word	1073767573
ARM GAS  C:\Users\ryanc\AppData\Local\Temp\ccbbl6Eq.s 			page 24


 499              		.cfi_endproc
 500              	.LFE1:
 501              		.size	PWMA_Init, .-PWMA_Init
 502              		.section	.text.PWMA_Start,"ax",%progbits
 503              		.align	2
 504              		.global	PWMA_Start
 505              		.thumb
 506              		.thumb_func
 507              		.type	PWMA_Start, %function
 508              	PWMA_Start:
 509              	.LFB0:
  56:Generated_Source\PSoC5/PWMA.c ****     /* If not Initialized then initialize all required hardware and software */
 510              		.loc 1 56 0
 511              		.cfi_startproc
 512              		@ args = 0, pretend = 0, frame = 0
 513              		@ frame_needed = 0, uses_anonymous_args = 0
 514 0000 08B5     		push	{r3, lr}
 515              		.cfi_def_cfa_offset 8
 516              		.cfi_offset 3, -8
 517              		.cfi_offset 14, -4
  58:Generated_Source\PSoC5/PWMA.c ****     {
 518              		.loc 1 58 0
 519 0002 054B     		ldr	r3, .L54
 520 0004 1B78     		ldrb	r3, [r3]	@ zero_extendqisi2
 521 0006 23B9     		cbnz	r3, .L52
  60:Generated_Source\PSoC5/PWMA.c ****         PWMA_initVar = 1u;
 522              		.loc 1 60 0
 523 0008 FFF7FEFF 		bl	PWMA_Init
 524              	.LVL22:
  61:Generated_Source\PSoC5/PWMA.c ****     }
 525              		.loc 1 61 0
 526 000c 0122     		movs	r2, #1
 527 000e 024B     		ldr	r3, .L54
 528 0010 1A70     		strb	r2, [r3]
 529              	.L52:
  63:Generated_Source\PSoC5/PWMA.c **** 
 530              		.loc 1 63 0
 531 0012 FFF7FEFF 		bl	PWMA_Enable
 532              	.LVL23:
 533 0016 08BD     		pop	{r3, pc}
 534              	.L55:
 535              		.align	2
 536              	.L54:
 537 0018 00000000 		.word	.LANCHOR0
 538              		.cfi_endproc
 539              	.LFE0:
 540              		.size	PWMA_Start, .-PWMA_Start
 541              		.section	.text.PWMA_ReadCompare1,"ax",%progbits
 542              		.align	2
 543              		.global	PWMA_ReadCompare1
 544              		.thumb
 545              		.thumb_func
 546              		.type	PWMA_ReadCompare1, %function
 547              	PWMA_ReadCompare1:
 548              	.LFB17:
 794:Generated_Source\PSoC5/PWMA.c **** 
 795:Generated_Source\PSoC5/PWMA.c **** #endif /* (!PWMA_UsingFixedFunction) */
ARM GAS  C:\Users\ryanc\AppData\Local\Temp\ccbbl6Eq.s 			page 25


 796:Generated_Source\PSoC5/PWMA.c **** 
 797:Generated_Source\PSoC5/PWMA.c **** 
 798:Generated_Source\PSoC5/PWMA.c **** #if (PWMA_UseOneCompareMode)
 799:Generated_Source\PSoC5/PWMA.c **** 
 800:Generated_Source\PSoC5/PWMA.c **** 
 801:Generated_Source\PSoC5/PWMA.c ****     /*******************************************************************************
 802:Generated_Source\PSoC5/PWMA.c ****     * Function Name: PWMA_ReadCompare
 803:Generated_Source\PSoC5/PWMA.c ****     ********************************************************************************
 804:Generated_Source\PSoC5/PWMA.c ****     *
 805:Generated_Source\PSoC5/PWMA.c ****     * Summary:
 806:Generated_Source\PSoC5/PWMA.c ****     *  Reads the compare value for the compare output when the PWM Mode parameter is
 807:Generated_Source\PSoC5/PWMA.c ****     *  set to Dither mode, Center Aligned mode, or One Output mode.
 808:Generated_Source\PSoC5/PWMA.c ****     *
 809:Generated_Source\PSoC5/PWMA.c ****     * Parameters:
 810:Generated_Source\PSoC5/PWMA.c ****     *  None
 811:Generated_Source\PSoC5/PWMA.c ****     *
 812:Generated_Source\PSoC5/PWMA.c ****     * Return:
 813:Generated_Source\PSoC5/PWMA.c ****     *  uint8/uint16: Current compare value
 814:Generated_Source\PSoC5/PWMA.c ****     *
 815:Generated_Source\PSoC5/PWMA.c ****     *******************************************************************************/
 816:Generated_Source\PSoC5/PWMA.c ****     uint16 PWMA_ReadCompare(void) 
 817:Generated_Source\PSoC5/PWMA.c ****     {
 818:Generated_Source\PSoC5/PWMA.c ****         #if(PWMA_UsingFixedFunction)
 819:Generated_Source\PSoC5/PWMA.c ****             return ((uint16)CY_GET_REG16(PWMA_COMPARE1_LSB_PTR));
 820:Generated_Source\PSoC5/PWMA.c ****         #else
 821:Generated_Source\PSoC5/PWMA.c ****             return (CY_GET_REG16(PWMA_COMPARE1_LSB_PTR));
 822:Generated_Source\PSoC5/PWMA.c ****         #endif /* (PWMA_UsingFixedFunction) */
 823:Generated_Source\PSoC5/PWMA.c ****     }
 824:Generated_Source\PSoC5/PWMA.c **** 
 825:Generated_Source\PSoC5/PWMA.c **** #else
 826:Generated_Source\PSoC5/PWMA.c **** 
 827:Generated_Source\PSoC5/PWMA.c **** 
 828:Generated_Source\PSoC5/PWMA.c ****     /*******************************************************************************
 829:Generated_Source\PSoC5/PWMA.c ****     * Function Name: PWMA_ReadCompare1
 830:Generated_Source\PSoC5/PWMA.c ****     ********************************************************************************
 831:Generated_Source\PSoC5/PWMA.c ****     *
 832:Generated_Source\PSoC5/PWMA.c ****     * Summary:
 833:Generated_Source\PSoC5/PWMA.c ****     *  Reads the compare value for the compare1 output.
 834:Generated_Source\PSoC5/PWMA.c ****     *
 835:Generated_Source\PSoC5/PWMA.c ****     * Parameters:
 836:Generated_Source\PSoC5/PWMA.c ****     *  None
 837:Generated_Source\PSoC5/PWMA.c ****     *
 838:Generated_Source\PSoC5/PWMA.c ****     * Return:
 839:Generated_Source\PSoC5/PWMA.c ****     *  uint8/uint16: Current compare value.
 840:Generated_Source\PSoC5/PWMA.c ****     *
 841:Generated_Source\PSoC5/PWMA.c ****     *******************************************************************************/
 842:Generated_Source\PSoC5/PWMA.c ****     uint16 PWMA_ReadCompare1(void) 
 843:Generated_Source\PSoC5/PWMA.c ****     {
 549              		.loc 1 843 0
 550              		.cfi_startproc
 551              		@ args = 0, pretend = 0, frame = 0
 552              		@ frame_needed = 0, uses_anonymous_args = 0
 553              		@ link register save eliminated.
 844:Generated_Source\PSoC5/PWMA.c ****         return (CY_GET_REG16(PWMA_COMPARE1_LSB_PTR));
 554              		.loc 1 844 0
 555 0000 014B     		ldr	r3, .L57
 556 0002 1888     		ldrh	r0, [r3]
ARM GAS  C:\Users\ryanc\AppData\Local\Temp\ccbbl6Eq.s 			page 26


 845:Generated_Source\PSoC5/PWMA.c ****     }
 557              		.loc 1 845 0
 558 0004 80B2     		uxth	r0, r0
 559 0006 7047     		bx	lr
 560              	.L58:
 561              		.align	2
 562              	.L57:
 563 0008 48680040 		.word	1073768520
 564              		.cfi_endproc
 565              	.LFE17:
 566              		.size	PWMA_ReadCompare1, .-PWMA_ReadCompare1
 567              		.section	.text.PWMA_ReadCompare2,"ax",%progbits
 568              		.align	2
 569              		.global	PWMA_ReadCompare2
 570              		.thumb
 571              		.thumb_func
 572              		.type	PWMA_ReadCompare2, %function
 573              	PWMA_ReadCompare2:
 574              	.LFB18:
 846:Generated_Source\PSoC5/PWMA.c **** 
 847:Generated_Source\PSoC5/PWMA.c **** 
 848:Generated_Source\PSoC5/PWMA.c ****     /*******************************************************************************
 849:Generated_Source\PSoC5/PWMA.c ****     * Function Name: PWMA_ReadCompare2
 850:Generated_Source\PSoC5/PWMA.c ****     ********************************************************************************
 851:Generated_Source\PSoC5/PWMA.c ****     *
 852:Generated_Source\PSoC5/PWMA.c ****     * Summary:
 853:Generated_Source\PSoC5/PWMA.c ****     *  Reads the compare value for the compare2 output.
 854:Generated_Source\PSoC5/PWMA.c ****     *
 855:Generated_Source\PSoC5/PWMA.c ****     * Parameters:
 856:Generated_Source\PSoC5/PWMA.c ****     *  None
 857:Generated_Source\PSoC5/PWMA.c ****     *
 858:Generated_Source\PSoC5/PWMA.c ****     * Return:
 859:Generated_Source\PSoC5/PWMA.c ****     *  uint8/uint16: Current compare value.
 860:Generated_Source\PSoC5/PWMA.c ****     *
 861:Generated_Source\PSoC5/PWMA.c ****     *******************************************************************************/
 862:Generated_Source\PSoC5/PWMA.c ****     uint16 PWMA_ReadCompare2(void) 
 863:Generated_Source\PSoC5/PWMA.c ****     {
 575              		.loc 1 863 0
 576              		.cfi_startproc
 577              		@ args = 0, pretend = 0, frame = 0
 578              		@ frame_needed = 0, uses_anonymous_args = 0
 579              		@ link register save eliminated.
 864:Generated_Source\PSoC5/PWMA.c ****         return (CY_GET_REG16(PWMA_COMPARE2_LSB_PTR));
 580              		.loc 1 864 0
 581 0000 014B     		ldr	r3, .L60
 582 0002 1888     		ldrh	r0, [r3]
 865:Generated_Source\PSoC5/PWMA.c ****     }
 583              		.loc 1 865 0
 584 0004 80B2     		uxth	r0, r0
 585 0006 7047     		bx	lr
 586              	.L61:
 587              		.align	2
 588              	.L60:
 589 0008 68680040 		.word	1073768552
 590              		.cfi_endproc
 591              	.LFE18:
 592              		.size	PWMA_ReadCompare2, .-PWMA_ReadCompare2
ARM GAS  C:\Users\ryanc\AppData\Local\Temp\ccbbl6Eq.s 			page 27


 593              		.section	.text.PWMA_ReadPeriod,"ax",%progbits
 594              		.align	2
 595              		.global	PWMA_ReadPeriod
 596              		.thumb
 597              		.thumb_func
 598              		.type	PWMA_ReadPeriod, %function
 599              	PWMA_ReadPeriod:
 600              	.LFB19:
 866:Generated_Source\PSoC5/PWMA.c **** 
 867:Generated_Source\PSoC5/PWMA.c **** #endif /* (PWMA_UseOneCompareMode) */
 868:Generated_Source\PSoC5/PWMA.c **** 
 869:Generated_Source\PSoC5/PWMA.c **** 
 870:Generated_Source\PSoC5/PWMA.c **** /*******************************************************************************
 871:Generated_Source\PSoC5/PWMA.c **** * Function Name: PWMA_ReadPeriod
 872:Generated_Source\PSoC5/PWMA.c **** ********************************************************************************
 873:Generated_Source\PSoC5/PWMA.c **** *
 874:Generated_Source\PSoC5/PWMA.c **** * Summary:
 875:Generated_Source\PSoC5/PWMA.c **** *  Reads the period value used by the PWM hardware.
 876:Generated_Source\PSoC5/PWMA.c **** *
 877:Generated_Source\PSoC5/PWMA.c **** * Parameters:
 878:Generated_Source\PSoC5/PWMA.c **** *  None
 879:Generated_Source\PSoC5/PWMA.c **** *
 880:Generated_Source\PSoC5/PWMA.c **** * Return:
 881:Generated_Source\PSoC5/PWMA.c **** *  uint8/16: Period value
 882:Generated_Source\PSoC5/PWMA.c **** *
 883:Generated_Source\PSoC5/PWMA.c **** *******************************************************************************/
 884:Generated_Source\PSoC5/PWMA.c **** uint16 PWMA_ReadPeriod(void) 
 885:Generated_Source\PSoC5/PWMA.c **** {
 601              		.loc 1 885 0
 602              		.cfi_startproc
 603              		@ args = 0, pretend = 0, frame = 0
 604              		@ frame_needed = 0, uses_anonymous_args = 0
 605              		@ link register save eliminated.
 886:Generated_Source\PSoC5/PWMA.c ****     #if(PWMA_UsingFixedFunction)
 887:Generated_Source\PSoC5/PWMA.c ****         return ((uint16)CY_GET_REG16(PWMA_PERIOD_LSB_PTR));
 888:Generated_Source\PSoC5/PWMA.c ****     #else
 889:Generated_Source\PSoC5/PWMA.c ****         return (CY_GET_REG16(PWMA_PERIOD_LSB_PTR));
 606              		.loc 1 889 0
 607 0000 014B     		ldr	r3, .L63
 608 0002 1888     		ldrh	r0, [r3]
 890:Generated_Source\PSoC5/PWMA.c ****     #endif /* (PWMA_UsingFixedFunction) */
 891:Generated_Source\PSoC5/PWMA.c **** }
 609              		.loc 1 891 0
 610 0004 80B2     		uxth	r0, r0
 611 0006 7047     		bx	lr
 612              	.L64:
 613              		.align	2
 614              	.L63:
 615 0008 88680040 		.word	1073768584
 616              		.cfi_endproc
 617              	.LFE19:
 618              		.size	PWMA_ReadPeriod, .-PWMA_ReadPeriod
 619              		.global	PWMA_initVar
 620              		.bss
 621              		.set	.LANCHOR0,. + 0
 622              		.type	PWMA_initVar, %object
 623              		.size	PWMA_initVar, 1
ARM GAS  C:\Users\ryanc\AppData\Local\Temp\ccbbl6Eq.s 			page 28


 624              	PWMA_initVar:
 625 0000 00       		.space	1
 626              		.text
 627              	.Letext0:
 628              		.file 2 "Generated_Source\\PSoC5\\cytypes.h"
 629              		.file 3 "Generated_Source\\PSoC5\\CyLib.h"